

Microchip MPLAB XC8 Assembler V2.31 build 20201012212115 
                                                                                               Tue Aug 10 11:45:14 2021

Microchip MPLAB XC8 C Compiler v2.31 (Free license) build 20201012212115 Og1 
     1                           	processor	16F887
     2                           	pagewidth 120
     3                           	opt	flic
     4                           	psect	strings,global,class=STRING,delta=2,noexec
     5                           	psect	cinit,global,class=CODE,merge=1,delta=2
     6                           	psect	bssBANK0,global,class=BANK0,space=1,delta=1,noexec
     7                           	psect	cstackCOMMON,global,class=COMMON,space=1,delta=1,noexec
     8                           	psect	cstackBANK0,global,class=BANK0,space=1,delta=1,noexec
     9                           	psect	maintext,global,class=CODE,split=1,delta=2
    10                           	psect	text1,local,class=CODE,merge=1,delta=2
    11                           	psect	text2,local,class=CODE,merge=1,delta=2
    12                           	psect	text3,local,class=CODE,merge=1,delta=2
    13                           	psect	text4,local,class=CODE,merge=1,delta=2
    14                           	psect	text5,local,class=CODE,merge=1,delta=2
    15                           	psect	text6,local,class=CODE,merge=1,delta=2
    16                           	psect	text7,local,class=CODE,merge=1,delta=2
    17                           	psect	text8,local,class=CODE,merge=1,delta=2
    18                           	psect	text9,local,class=CODE,merge=1,delta=2
    19                           	psect	text10,local,class=CODE,merge=1,delta=2
    20                           	psect	text11,local,class=CODE,merge=1,delta=2
    21                           	psect	text12,local,class=CODE,merge=1,delta=2
    22                           	psect	text13,local,class=CODE,merge=1,delta=2
    23                           	psect	text14,local,class=CODE,merge=1,delta=2
    24                           	psect	text15,local,class=CODE,merge=1,delta=2
    25                           	psect	text16,local,class=CODE,merge=1,delta=2,group=1
    26                           	psect	config,global,abs,ovrld,class=CONFIG,space=4,delta=2,noexec
    27                           	dabs	1,0x7E,2
    28  0000                     
    29                           ; Version 2.20
    30                           ; Generated 12/02/2020 GMT
    31                           ; 
    32                           ; Copyright © 2020, Microchip Technology Inc. and its subsidiaries ("Microchip")
    33                           ; All rights reserved.
    34                           ; 
    35                           ; This software is developed by Microchip Technology Inc. and its subsidiaries ("Microch
      +                          ip").
    36                           ; 
    37                           ; Redistribution and use in source and binary forms, with or without modification, are
    38                           ; permitted provided that the following conditions are met:
    39                           ; 
    40                           ;     1. Redistributions of source code must retain the above copyright notice, this lis
      +                          t of
    41                           ;        conditions and the following disclaimer.
    42                           ; 
    43                           ;     2. Redistributions in binary form must reproduce the above copyright notice, this 
      +                          list
    44                           ;        of conditions and the following disclaimer in the documentation and/or other
    45                           ;        materials provided with the distribution.
    46                           ; 
    47                           ;     3. Microchip's name may not be used to endorse or promote products derived from th
      +                          is
    48                           ;        software without specific prior written permission.
    49                           ; 
    50                           ; THIS SOFTWARE IS PROVIDED BY MICROCHIP "AS IS" AND ANY EXPRESS OR IMPLIED WARRANTIES,
    51                           ; INCLUDING, BUT NOT LIMITED TO, THE IMPLIED WARRANTIES OF MERCHANTABILITY AND FITNESS F
      +                          OR
    52                           ; PURPOSE ARE DISCLAIMED.  IN NO EVENT SHALL MICROCHIP BE LIABLE FOR ANY DIRECT, INDIREC
      +                          T,
    53                           ; INCIDENTAL, SPECIAL, EXEMPLARY, OR CONSEQUENTIAL DAMAGES (INCLUDING BUT NOT LIMITED TO
    54                           ; PROCUREMENT OF SUBSTITUTE GOODS OR SERVICES; LOSS OF USE, DATA OR PROFITS; OR BUSINESS
    55                           ; INTERRUPTION) HOWSOEVER CAUSED AND ON ANY THEORY OF LIABILITY, WHETHER IN CONTRACT, ST
      +                          RICT
    56                           ; LIABILITY, OR TORT (INCLUDING NEGLIGENCE OR OTHERWISE) ARISING IN ANY WAY OUT OF THE U
      +                          SE OF
    57                           ; THIS SOFTWARE, EVEN IF ADVISED OF THE POSSIBILITY OF SUCH DAMAGE.
    58                           ; 
    59                           ; 
    60                           ; Code-generator required, PIC16F887 Definitions
    61                           ; 
    62                           ; SFR Addresses
    63  0000                     	;# 
    64  0001                     	;# 
    65  0002                     	;# 
    66  0003                     	;# 
    67  0004                     	;# 
    68  0005                     	;# 
    69  0006                     	;# 
    70  0007                     	;# 
    71  0008                     	;# 
    72  0009                     	;# 
    73  000A                     	;# 
    74  000B                     	;# 
    75  000C                     	;# 
    76  000D                     	;# 
    77  000E                     	;# 
    78  000E                     	;# 
    79  000F                     	;# 
    80  0010                     	;# 
    81  0011                     	;# 
    82  0012                     	;# 
    83  0013                     	;# 
    84  0014                     	;# 
    85  0015                     	;# 
    86  0015                     	;# 
    87  0016                     	;# 
    88  0017                     	;# 
    89  0018                     	;# 
    90  0019                     	;# 
    91  001A                     	;# 
    92  001B                     	;# 
    93  001B                     	;# 
    94  001C                     	;# 
    95  001D                     	;# 
    96  001E                     	;# 
    97  001F                     	;# 
    98  0081                     	;# 
    99  0085                     	;# 
   100  0086                     	;# 
   101  0087                     	;# 
   102  0088                     	;# 
   103  0089                     	;# 
   104  008C                     	;# 
   105  008D                     	;# 
   106  008E                     	;# 
   107  008F                     	;# 
   108  0090                     	;# 
   109  0091                     	;# 
   110  0092                     	;# 
   111  0093                     	;# 
   112  0093                     	;# 
   113  0093                     	;# 
   114  0094                     	;# 
   115  0095                     	;# 
   116  0096                     	;# 
   117  0097                     	;# 
   118  0098                     	;# 
   119  0099                     	;# 
   120  009A                     	;# 
   121  009B                     	;# 
   122  009C                     	;# 
   123  009D                     	;# 
   124  009E                     	;# 
   125  009F                     	;# 
   126  0105                     	;# 
   127  0107                     	;# 
   128  0108                     	;# 
   129  0109                     	;# 
   130  010C                     	;# 
   131  010C                     	;# 
   132  010D                     	;# 
   133  010E                     	;# 
   134  010F                     	;# 
   135  0185                     	;# 
   136  0187                     	;# 
   137  0188                     	;# 
   138  0189                     	;# 
   139  018C                     	;# 
   140  018D                     	;# 
   141  0000                     	;# 
   142  0001                     	;# 
   143  0002                     	;# 
   144  0003                     	;# 
   145  0004                     	;# 
   146  0005                     	;# 
   147  0006                     	;# 
   148  0007                     	;# 
   149  0008                     	;# 
   150  0009                     	;# 
   151  000A                     	;# 
   152  000B                     	;# 
   153  000C                     	;# 
   154  000D                     	;# 
   155  000E                     	;# 
   156  000E                     	;# 
   157  000F                     	;# 
   158  0010                     	;# 
   159  0011                     	;# 
   160  0012                     	;# 
   161  0013                     	;# 
   162  0014                     	;# 
   163  0015                     	;# 
   164  0015                     	;# 
   165  0016                     	;# 
   166  0017                     	;# 
   167  0018                     	;# 
   168  0019                     	;# 
   169  001A                     	;# 
   170  001B                     	;# 
   171  001B                     	;# 
   172  001C                     	;# 
   173  001D                     	;# 
   174  001E                     	;# 
   175  001F                     	;# 
   176  0081                     	;# 
   177  0085                     	;# 
   178  0086                     	;# 
   179  0087                     	;# 
   180  0088                     	;# 
   181  0089                     	;# 
   182  008C                     	;# 
   183  008D                     	;# 
   184  008E                     	;# 
   185  008F                     	;# 
   186  0090                     	;# 
   187  0091                     	;# 
   188  0092                     	;# 
   189  0093                     	;# 
   190  0093                     	;# 
   191  0093                     	;# 
   192  0094                     	;# 
   193  0095                     	;# 
   194  0096                     	;# 
   195  0097                     	;# 
   196  0098                     	;# 
   197  0099                     	;# 
   198  009A                     	;# 
   199  009B                     	;# 
   200  009C                     	;# 
   201  009D                     	;# 
   202  009E                     	;# 
   203  009F                     	;# 
   204  0105                     	;# 
   205  0107                     	;# 
   206  0108                     	;# 
   207  0109                     	;# 
   208  010C                     	;# 
   209  010C                     	;# 
   210  010D                     	;# 
   211  010E                     	;# 
   212  010F                     	;# 
   213  0185                     	;# 
   214  0187                     	;# 
   215  0188                     	;# 
   216  0189                     	;# 
   217  018C                     	;# 
   218  018D                     	;# 
   219  0000                     	;# 
   220  0001                     	;# 
   221  0002                     	;# 
   222  0003                     	;# 
   223  0004                     	;# 
   224  0005                     	;# 
   225  0006                     	;# 
   226  0007                     	;# 
   227  0008                     	;# 
   228  0009                     	;# 
   229  000A                     	;# 
   230  000B                     	;# 
   231  000C                     	;# 
   232  000D                     	;# 
   233  000E                     	;# 
   234  000E                     	;# 
   235  000F                     	;# 
   236  0010                     	;# 
   237  0011                     	;# 
   238  0012                     	;# 
   239  0013                     	;# 
   240  0014                     	;# 
   241  0015                     	;# 
   242  0015                     	;# 
   243  0016                     	;# 
   244  0017                     	;# 
   245  0018                     	;# 
   246  0019                     	;# 
   247  001A                     	;# 
   248  001B                     	;# 
   249  001B                     	;# 
   250  001C                     	;# 
   251  001D                     	;# 
   252  001E                     	;# 
   253  001F                     	;# 
   254  0081                     	;# 
   255  0085                     	;# 
   256  0086                     	;# 
   257  0087                     	;# 
   258  0088                     	;# 
   259  0089                     	;# 
   260  008C                     	;# 
   261  008D                     	;# 
   262  008E                     	;# 
   263  008F                     	;# 
   264  0090                     	;# 
   265  0091                     	;# 
   266  0092                     	;# 
   267  0093                     	;# 
   268  0093                     	;# 
   269  0093                     	;# 
   270  0094                     	;# 
   271  0095                     	;# 
   272  0096                     	;# 
   273  0097                     	;# 
   274  0098                     	;# 
   275  0099                     	;# 
   276  009A                     	;# 
   277  009B                     	;# 
   278  009C                     	;# 
   279  009D                     	;# 
   280  009E                     	;# 
   281  009F                     	;# 
   282  0105                     	;# 
   283  0107                     	;# 
   284  0108                     	;# 
   285  0109                     	;# 
   286  010C                     	;# 
   287  010C                     	;# 
   288  010D                     	;# 
   289  010E                     	;# 
   290  010F                     	;# 
   291  0185                     	;# 
   292  0187                     	;# 
   293  0188                     	;# 
   294  0189                     	;# 
   295  018C                     	;# 
   296  018D                     	;# 
   297  0000                     	;# 
   298  0001                     	;# 
   299  0002                     	;# 
   300  0003                     	;# 
   301  0004                     	;# 
   302  0005                     	;# 
   303  0006                     	;# 
   304  0007                     	;# 
   305  0008                     	;# 
   306  0009                     	;# 
   307  000A                     	;# 
   308  000B                     	;# 
   309  000C                     	;# 
   310  000D                     	;# 
   311  000E                     	;# 
   312  000E                     	;# 
   313  000F                     	;# 
   314  0010                     	;# 
   315  0011                     	;# 
   316  0012                     	;# 
   317  0013                     	;# 
   318  0014                     	;# 
   319  0015                     	;# 
   320  0015                     	;# 
   321  0016                     	;# 
   322  0017                     	;# 
   323  0018                     	;# 
   324  0019                     	;# 
   325  001A                     	;# 
   326  001B                     	;# 
   327  001B                     	;# 
   328  001C                     	;# 
   329  001D                     	;# 
   330  001E                     	;# 
   331  001F                     	;# 
   332  0081                     	;# 
   333  0085                     	;# 
   334  0086                     	;# 
   335  0087                     	;# 
   336  0088                     	;# 
   337  0089                     	;# 
   338  008C                     	;# 
   339  008D                     	;# 
   340  008E                     	;# 
   341  008F                     	;# 
   342  0090                     	;# 
   343  0091                     	;# 
   344  0092                     	;# 
   345  0093                     	;# 
   346  0093                     	;# 
   347  0093                     	;# 
   348  0094                     	;# 
   349  0095                     	;# 
   350  0096                     	;# 
   351  0097                     	;# 
   352  0098                     	;# 
   353  0099                     	;# 
   354  009A                     	;# 
   355  009B                     	;# 
   356  009C                     	;# 
   357  009D                     	;# 
   358  009E                     	;# 
   359  009F                     	;# 
   360  0105                     	;# 
   361  0107                     	;# 
   362  0108                     	;# 
   363  0109                     	;# 
   364  010C                     	;# 
   365  010C                     	;# 
   366  010D                     	;# 
   367  010E                     	;# 
   368  010F                     	;# 
   369  0185                     	;# 
   370  0187                     	;# 
   371  0188                     	;# 
   372  0189                     	;# 
   373  018C                     	;# 
   374  018D                     	;# 
   375  0009                     _PORTE	set	9
   376  0008                     _PORTD	set	8
   377  0007                     _PORTC	set	7
   378  0006                     _PORTB	set	6
   379  0005                     _PORTA	set	5
   380  0013                     _SSPBUF	set	19
   381  0014                     _SSPCON	set	20
   382  004A                     _RE2	set	74
   383  0049                     _RE1	set	73
   384  0048                     _RE0	set	72
   385  0063                     _SSPIF	set	99
   386  005E                     _PEIE	set	94
   387  005F                     _GIE	set	95
   388  008F                     _OSCCONbits	set	143
   389  0089                     _TRISE	set	137
   390  0088                     _TRISD	set	136
   391  0086                     _TRISB	set	134
   392  0085                     _TRISA	set	133
   393  0091                     _SSPCON2bits	set	145
   394  0087                     _TRISCbits	set	135
   395  0094                     _SSPSTAT	set	148
   396  0093                     _SSPADD	set	147
   397  0091                     _SSPCON2	set	145
   398  0463                     _SSPIE	set	1123
   399  043C                     _TRISC4	set	1084
   400  043B                     _TRISC3	set	1083
   401  0189                     _ANSELH	set	393
   402  0188                     _ANSEL	set	392
   403                           
   404                           	psect	strings
   405  0003                     __pstrings:
   406  0003                     stringtab:
   407  0003                     __stringtab:
   408                           
   409                           ;	String table - string pointers are 1 byte each
   410  0003  1BFF               	btfsc	btemp+1,7
   411  0004  280D               	ljmp	stringcode
   412  0005  1383               	bcf	3,7
   413  0006  187F               	btfsc	btemp+1,0
   414  0007  1783               	bsf	3,7
   415  0008  0800               	movf	0,w
   416  0009  0A84               	incf	4,f
   417  000A  1903               	skipnz
   418  000B  0AFF               	incf	btemp+1,f
   419  000C  0008               	return
   420  000D                     stringcode:
   421  000D                     stringdir:
   422  000D  3000               	movlw	high stringdir
   423  000E  008A               	movwf	10
   424  000F  0804               	movf	4,w
   425  0010  0A84               	incf	4,f
   426  0011  0782               	addwf	2,f
   427  0012                     __stringbase:
   428  0012  3400               	retlw	0
   429  0013                     __end_of__stringtab:
   430  0013                     STR_1:
   431  0013  3453               	retlw	83	;'S'
   432  0014  3431               	retlw	49	;'1'
   433  0015  343A               	retlw	58	;':'
   434  0016  3420               	retlw	32	;' '
   435  0017  3420               	retlw	32	;' '
   436  0018  3420               	retlw	32	;' '
   437  0019  3420               	retlw	32	;' '
   438  001A  3453               	retlw	83	;'S'
   439  001B  3432               	retlw	50	;'2'
   440  001C  343A               	retlw	58	;':'
   441  001D  3420               	retlw	32	;' '
   442  001E  3420               	retlw	32	;' '
   443  001F  3420               	retlw	32	;' '
   444  0020  3453               	retlw	83	;'S'
   445  0021  3433               	retlw	51	;'3'
   446  0022  343A               	retlw	58	;':'
   447  0023  3400               	retlw	0
   448                           
   449                           	psect	cinit
   450  07EB                     start_initialization:	
   451                           ; #config settings
   452                           
   453  07EB                     __initialization:
   454                           
   455                           ; Clear objects allocated to BANK0
   456  07EB  1283               	bcf	3,5	;RP0=0, select bank0
   457  07EC  1303               	bcf	3,6	;RP1=0, select bank0
   458  07ED  01A0               	clrf	__pbssBANK0& (0+127)
   459  07EE  01A1               	clrf	(__pbssBANK0+1)& (0+127)
   460  07EF  01A2               	clrf	(__pbssBANK0+2)& (0+127)
   461  07F0  01A3               	clrf	(__pbssBANK0+3)& (0+127)
   462  07F1  01A4               	clrf	(__pbssBANK0+4)& (0+127)
   463  07F2  01A5               	clrf	(__pbssBANK0+5)& (0+127)
   464  07F3  01A6               	clrf	(__pbssBANK0+6)& (0+127)
   465  07F4  01A7               	clrf	(__pbssBANK0+7)& (0+127)
   466  07F5  01A8               	clrf	(__pbssBANK0+8)& (0+127)
   467  07F6  01A9               	clrf	(__pbssBANK0+9)& (0+127)
   468  07F7  01AA               	clrf	(__pbssBANK0+10)& (0+127)
   469  07F8  01AB               	clrf	(__pbssBANK0+11)& (0+127)
   470  07F9  01AC               	clrf	(__pbssBANK0+12)& (0+127)
   471  07FA  01AD               	clrf	(__pbssBANK0+13)& (0+127)
   472  07FB  01AE               	clrf	(__pbssBANK0+14)& (0+127)
   473  07FC                     end_of_initialization:	
   474                           ;End of C runtime variable initialization code
   475                           
   476  07FC                     __end_of__initialization:
   477  07FC  0183               	clrf	3
   478  07FD  120A  118A  2D7A   	ljmp	_main	;jump to C main() function
   479                           
   480                           	psect	bssBANK0
   481  0020                     __pbssBANK0:
   482  0020                     _conver:
   483  0020                     	ds	4
   484  0024                     _temperatura:
   485  0024                     	ds	2
   486  0026                     _contador:
   487  0026                     	ds	1
   488  0027                     _tempe:
   489  0027                     	ds	3
   490  002A                     _volt:
   491  002A                     	ds	3
   492  002D                     _conta:
   493  002D                     	ds	1
   494  002E                     _ADC:
   495  002E                     	ds	1
   496                           
   497                           	psect	cstackCOMMON
   498  0070                     __pcstackCOMMON:
   499  0070                     ?_conf_OSCCON:
   500  0070                     ??_conf_OSCCON:	
   501                           ; 1 bytes @ 0x0
   502                           
   503  0070                     ?_init_LCD:	
   504                           ; 1 bytes @ 0x0
   505                           
   506  0070                     ?_centenas:	
   507                           ; 1 bytes @ 0x0
   508                           
   509  0070                     ?_decenas:	
   510                           ; 1 bytes @ 0x0
   511                           
   512  0070                     ?_unidades:	
   513                           ; 1 bytes @ 0x0
   514                           
   515  0070                     ?_comando_LCD:	
   516                           ; 1 bytes @ 0x0
   517                           
   518  0070                     ??_comando_LCD:	
   519                           ; 1 bytes @ 0x0
   520                           
   521  0070                     ?_caracteres_LCD:	
   522                           ; 1 bytes @ 0x0
   523                           
   524  0070                     ??_caracteres_LCD:	
   525                           ; 1 bytes @ 0x0
   526                           
   527  0070                     ?_I2C_Master_Wait:	
   528                           ; 1 bytes @ 0x0
   529                           
   530  0070                     ??_I2C_Master_Wait:	
   531                           ; 1 bytes @ 0x0
   532                           
   533  0070                     ?_I2C_Master_Start:	
   534                           ; 1 bytes @ 0x0
   535                           
   536  0070                     ??_I2C_Master_Start:	
   537                           ; 1 bytes @ 0x0
   538                           
   539  0070                     ?_I2C_Master_Stop:	
   540                           ; 1 bytes @ 0x0
   541                           
   542  0070                     ??_I2C_Master_Stop:	
   543                           ; 1 bytes @ 0x0
   544                           
   545  0070                     ?_I2C_Master_Write:	
   546                           ; 1 bytes @ 0x0
   547                           
   548  0070                     ?_main:	
   549                           ; 1 bytes @ 0x0
   550                           
   551  0070                     ?_I2C_Master_Read:	
   552                           ; 1 bytes @ 0x0
   553                           
   554  0070                     ?___lldiv:	
   555                           ; 2 bytes @ 0x0
   556                           
   557  0070                     I2C_Master_Write@d:	
   558                           ; 4 bytes @ 0x0
   559                           
   560  0070                     I2C_Master_Read@a:	
   561                           ; 2 bytes @ 0x0
   562                           
   563  0070                     centenas@cantidad:	
   564                           ; 2 bytes @ 0x0
   565                           
   566  0070                     decenas@cantidad:	
   567                           ; 4 bytes @ 0x0
   568                           
   569  0070                     unidades@cantidad:	
   570                           ; 4 bytes @ 0x0
   571                           
   572  0070                     ___lldiv@divisor:	
   573                           ; 4 bytes @ 0x0
   574                           
   575                           
   576                           ; 4 bytes @ 0x0
   577  0070                     	ds	1
   578  0071                     comando_LCD@dato:
   579  0071                     caracteres_LCD@data:	
   580                           ; 1 bytes @ 0x1
   581                           
   582                           
   583                           ; 1 bytes @ 0x1
   584  0071                     	ds	1
   585  0072                     ??_init_LCD:
   586  0072                     ?_centrado_LCD:	
   587                           ; 1 bytes @ 0x2
   588                           
   589  0072                     ?_sed_LCD:	
   590                           ; 1 bytes @ 0x2
   591                           
   592  0072                     ??_I2C_Master_Write:	
   593                           ; 1 bytes @ 0x2
   594                           
   595  0072                     ??_I2C_Master_Read:	
   596                           ; 1 bytes @ 0x2
   597                           
   598  0072                     conf_OSCCON@frecuencia:	
   599                           ; 1 bytes @ 0x2
   600                           
   601  0072                     centrado_LCD@y:	
   602                           ; 1 bytes @ 0x2
   603                           
   604  0072                     sed_LCD@dato:	
   605                           ; 1 bytes @ 0x2
   606                           
   607                           
   608                           ; 2 bytes @ 0x2
   609  0072                     	ds	1
   610  0073                     ??_centrado_LCD:
   611  0073                     centrado_LCD@x:	
   612                           ; 1 bytes @ 0x3
   613                           
   614                           
   615                           ; 1 bytes @ 0x3
   616  0073                     	ds	1
   617  0074                     ??_sed_LCD:
   618  0074                     ??_centenas:	
   619                           ; 1 bytes @ 0x4
   620                           
   621  0074                     ??_decenas:	
   622                           ; 1 bytes @ 0x4
   623                           
   624  0074                     ??_unidades:	
   625                           ; 1 bytes @ 0x4
   626                           
   627  0074                     I2C_Master_Read@temp:	
   628                           ; 1 bytes @ 0x4
   629                           
   630  0074                     ___lldiv@dividend:	
   631                           ; 2 bytes @ 0x4
   632                           
   633                           
   634                           ; 4 bytes @ 0x4
   635  0074                     	ds	4
   636  0078                     ??___lldiv:
   637  0078                     centenas@cont:	
   638                           ; 1 bytes @ 0x8
   639                           
   640  0078                     decenas@cont:	
   641                           ; 4 bytes @ 0x8
   642                           
   643  0078                     unidades@cont:	
   644                           ; 4 bytes @ 0x8
   645                           
   646                           
   647                           ; 4 bytes @ 0x8
   648  0078                     	ds	1
   649  0079                     ___lldiv@quotient:
   650                           
   651                           ; 4 bytes @ 0x9
   652  0079                     	ds	3
   653  007C                     centenas@centenas:
   654  007C                     decenas@decenas:	
   655                           ; 1 bytes @ 0xC
   656                           
   657  007C                     unidades@unidades:	
   658                           ; 1 bytes @ 0xC
   659                           
   660                           
   661                           ; 1 bytes @ 0xC
   662  007C                     	ds	1
   663  007D                     ___lldiv@counter:
   664                           
   665                           ; 1 bytes @ 0xD
   666  007D                     	ds	1
   667                           
   668                           	psect	cstackBANK0
   669  002F                     __pcstackBANK0:
   670  002F                     ?_I2C_Master_Init:
   671  002F                     I2C_Master_Init@c:	
   672                           ; 1 bytes @ 0x0
   673                           
   674                           
   675                           ; 4 bytes @ 0x0
   676  002F                     	ds	4
   677  0033                     ??_I2C_Master_Init:
   678                           
   679                           ; 1 bytes @ 0x4
   680  0033                     	ds	4
   681  0037                     ??_main:
   682                           
   683                           ; 1 bytes @ 0x8
   684  0037                     	ds	5
   685                           
   686                           	psect	maintext
   687  057A                     __pmaintext:	
   688 ;;
   689 ;;Main: autosize = 0, tempsize = 5, incstack = 0, save=0
   690 ;;
   691 ;; *************** function _main *****************
   692 ;; Defined at:
   693 ;;		line 50 in file "master_main.c"
   694 ;; Parameters:    Size  Location     Type
   695 ;;		None
   696 ;; Auto vars:     Size  Location     Type
   697 ;;		None
   698 ;; Return value:  Size  Location     Type
   699 ;;                  1    wreg      void 
   700 ;; Registers used:
   701 ;;		wreg, fsr0l, fsr0h, status,2, status,0, btemp+1, pclath, cstack
   702 ;; Tracked objects:
   703 ;;		On entry : B00/0
   704 ;;		On exit  : 0/0
   705 ;;		Unchanged: 0/0
   706 ;; Data sizes:     COMMON   BANK0   BANK1   BANK3   BANK2
   707 ;;      Params:         0       0       0       0       0
   708 ;;      Locals:         0       0       0       0       0
   709 ;;      Temps:          0       5       0       0       0
   710 ;;      Totals:         0       5       0       0       0
   711 ;;Total ram usage:        5 bytes
   712 ;; Hardware stack levels required when called:    2
   713 ;; This function calls:
   714 ;;		_I2C_Master_Init
   715 ;;		_I2C_Master_Read
   716 ;;		_I2C_Master_Start
   717 ;;		_I2C_Master_Stop
   718 ;;		_I2C_Master_Write
   719 ;;		_centenas
   720 ;;		_centrado_LCD
   721 ;;		_conf_OSCCON
   722 ;;		_decenas
   723 ;;		_init_LCD
   724 ;;		_sed_LCD
   725 ;;		_unidades
   726 ;; This function is called by:
   727 ;;		Startup code after reset
   728 ;; This function uses a non-reentrant model
   729 ;;
   730                           
   731                           
   732                           ;psect for function _main
   733  057A                     _main:
   734  057A                     l1799:	
   735                           ;incstack = 0
   736                           ; Regs used in _main: [wreg-fsr0h+status,2+status,0+btemp+1+pclath+cstack]
   737                           
   738                           
   739                           ;master_main.c: 54: ANSEL = 0x00;
   740  057A  1683               	bsf	3,5	;RP0=1, select bank3
   741  057B  1703               	bsf	3,6	;RP1=1, select bank3
   742  057C  0188               	clrf	8	;volatile
   743                           
   744                           ;master_main.c: 55: ANSELH = 0x00;
   745  057D  0189               	clrf	9	;volatile
   746                           
   747                           ;master_main.c: 57: TRISA = 0x00;
   748  057E  1683               	bsf	3,5	;RP0=1, select bank1
   749  057F  1303               	bcf	3,6	;RP1=0, select bank1
   750  0580  0185               	clrf	5	;volatile
   751                           
   752                           ;master_main.c: 58: TRISB = 0x00;
   753  0581  0186               	clrf	6	;volatile
   754                           
   755                           ;master_main.c: 59: TRISD = 0x00;
   756  0582  0188               	clrf	8	;volatile
   757                           
   758                           ;master_main.c: 60: TRISE = 0x00;
   759  0583  0189               	clrf	9	;volatile
   760                           
   761                           ;master_main.c: 62: PORTA = 0x00;
   762  0584  1283               	bcf	3,5	;RP0=0, select bank0
   763  0585  1303               	bcf	3,6	;RP1=0, select bank0
   764  0586  0185               	clrf	5	;volatile
   765                           
   766                           ;master_main.c: 63: PORTB = 0x00;
   767  0587  0186               	clrf	6	;volatile
   768                           
   769                           ;master_main.c: 64: PORTC = 0x00;
   770  0588  0187               	clrf	7	;volatile
   771                           
   772                           ;master_main.c: 65: PORTD = 0x00;
   773  0589  0188               	clrf	8	;volatile
   774                           
   775                           ;master_main.c: 66: PORTE = 0x00;
   776  058A  0189               	clrf	9	;volatile
   777  058B                     l1801:
   778                           
   779                           ;master_main.c: 73: conf_OSCCON(8);
   780  058B  3008               	movlw	8
   781  058C  120A  118A  2238  120A  118A  	fcall	_conf_OSCCON
   782  0591                     l1803:
   783                           
   784                           ;master_main.c: 77: I2C_Master_Init(100000);
   785  0591  3000               	movlw	0
   786  0592  1283               	bcf	3,5	;RP0=0, select bank0
   787  0593  1303               	bcf	3,6	;RP1=0, select bank0
   788  0594  00B2               	movwf	I2C_Master_Init@c+3
   789  0595  3001               	movlw	1
   790  0596  00B1               	movwf	I2C_Master_Init@c+2
   791  0597  3086               	movlw	134
   792  0598  00B0               	movwf	I2C_Master_Init@c+1
   793  0599  30A0               	movlw	160
   794  059A  00AF               	movwf	I2C_Master_Init@c
   795  059B  120A  118A  21C0  120A  118A  	fcall	_I2C_Master_Init
   796  05A0                     l1805:
   797                           
   798                           ;master_main.c: 81: init_LCD();
   799  05A0  120A  118A  21F8  120A  118A  	fcall	_init_LCD
   800  05A5                     l1807:
   801                           
   802                           ;master_main.c: 89:     I2C_Master_Start();
   803  05A5  120A  118A  20F3  120A  118A  	fcall	_I2C_Master_Start
   804  05AA                     l1809:
   805                           
   806                           ;master_main.c: 90:     I2C_Master_Write(0xB1);
   807  05AA  30B1               	movlw	177
   808  05AB  00F0               	movwf	I2C_Master_Write@d
   809  05AC  3000               	movlw	0
   810  05AD  00F1               	movwf	I2C_Master_Write@d+1
   811  05AE  120A  118A  2105  120A  118A  	fcall	_I2C_Master_Write
   812  05B3                     l1811:
   813                           
   814                           ;master_main.c: 91:     ADC = I2C_Master_Read(0);
   815  05B3  3000               	movlw	0
   816  05B4  00F0               	movwf	I2C_Master_Read@a
   817  05B5  00F1               	movwf	I2C_Master_Read@a+1
   818  05B6  120A  118A  2192  120A  118A  	fcall	_I2C_Master_Read
   819  05BB  0870               	movf	?_I2C_Master_Read,w
   820  05BC  1283               	bcf	3,5	;RP0=0, select bank0
   821  05BD  1303               	bcf	3,6	;RP1=0, select bank0
   822  05BE  00B7               	movwf	??_main
   823  05BF  0837               	movf	??_main,w
   824  05C0  00AE               	movwf	_ADC
   825  05C1                     l1813:
   826                           
   827                           ;master_main.c: 92:     I2C_Master_Stop();
   828  05C1  120A  118A  20FC  120A  118A  	fcall	_I2C_Master_Stop
   829  05C6                     l1815:
   830                           
   831                           ;master_main.c: 93:     _delay((unsigned long)((200)*(8000000/4000.0)));
   832  05C6  3003               	movlw	3
   833  05C7  1283               	bcf	3,5	;RP0=0, select bank0
   834  05C8  1303               	bcf	3,6	;RP1=0, select bank0
   835  05C9  00B9               	movwf	??_main+2
   836  05CA  3008               	movlw	8
   837  05CB  00B8               	movwf	??_main+1
   838  05CC  3076               	movlw	118
   839  05CD  00B7               	movwf	??_main
   840  05CE                     u517:
   841  05CE  0BB7               	decfsz	??_main,f
   842  05CF  2DCE               	goto	u517
   843  05D0  0BB8               	decfsz	??_main+1,f
   844  05D1  2DCE               	goto	u517
   845  05D2  0BB9               	decfsz	??_main+2,f
   846  05D3  2DCE               	goto	u517
   847  05D4  0000               	nop
   848  05D5                     l1817:
   849                           
   850                           ;master_main.c: 97:     I2C_Master_Start();
   851  05D5  120A  118A  20F3  120A  118A  	fcall	_I2C_Master_Start
   852  05DA                     l1819:
   853                           
   854                           ;master_main.c: 98:     I2C_Master_Write(0b10010000);
   855  05DA  3090               	movlw	144
   856  05DB  00F0               	movwf	I2C_Master_Write@d
   857  05DC  3000               	movlw	0
   858  05DD  00F1               	movwf	I2C_Master_Write@d+1
   859  05DE  120A  118A  2105  120A  118A  	fcall	_I2C_Master_Write
   860  05E3                     l1821:
   861                           
   862                           ;master_main.c: 99:     I2C_Master_Write(0x00);
   863  05E3  3000               	movlw	0
   864  05E4  00F0               	movwf	I2C_Master_Write@d
   865  05E5  00F1               	movwf	I2C_Master_Write@d+1
   866  05E6  120A  118A  2105  120A  118A  	fcall	_I2C_Master_Write
   867  05EB                     l1823:
   868                           
   869                           ;master_main.c: 100:     I2C_Master_Stop();
   870  05EB  120A  118A  20FC  120A  118A  	fcall	_I2C_Master_Stop
   871  05F0                     l1825:
   872                           
   873                           ;master_main.c: 101:     _delay((unsigned long)((200)*(8000000/4000.0)));
   874  05F0  3003               	movlw	3
   875  05F1  1283               	bcf	3,5	;RP0=0, select bank0
   876  05F2  1303               	bcf	3,6	;RP1=0, select bank0
   877  05F3  00B9               	movwf	??_main+2
   878  05F4  3008               	movlw	8
   879  05F5  00B8               	movwf	??_main+1
   880  05F6  3076               	movlw	118
   881  05F7  00B7               	movwf	??_main
   882  05F8                     u527:
   883  05F8  0BB7               	decfsz	??_main,f
   884  05F9  2DF8               	goto	u527
   885  05FA  0BB8               	decfsz	??_main+1,f
   886  05FB  2DF8               	goto	u527
   887  05FC  0BB9               	decfsz	??_main+2,f
   888  05FD  2DF8               	goto	u527
   889  05FE  0000               	nop
   890  05FF                     l1827:
   891                           
   892                           ;master_main.c: 102:     I2C_Master_Start();
   893  05FF  120A  118A  20F3  120A  118A  	fcall	_I2C_Master_Start
   894  0604                     l1829:
   895                           
   896                           ;master_main.c: 103:     I2C_Master_Write(0b10010001);
   897  0604  3091               	movlw	145
   898  0605  00F0               	movwf	I2C_Master_Write@d
   899  0606  3000               	movlw	0
   900  0607  00F1               	movwf	I2C_Master_Write@d+1
   901  0608  120A  118A  2105  120A  118A  	fcall	_I2C_Master_Write
   902  060D                     l1831:
   903                           
   904                           ;master_main.c: 104:     temperatura = I2C_Master_Read(0);
   905  060D  3000               	movlw	0
   906  060E  00F0               	movwf	I2C_Master_Read@a
   907  060F  00F1               	movwf	I2C_Master_Read@a+1
   908  0610  120A  118A  2192  120A  118A  	fcall	_I2C_Master_Read
   909  0615  0871               	movf	?_I2C_Master_Read+1,w
   910  0616  1283               	bcf	3,5	;RP0=0, select bank0
   911  0617  1303               	bcf	3,6	;RP1=0, select bank0
   912  0618  00A5               	movwf	_temperatura+1
   913  0619  0870               	movf	?_I2C_Master_Read,w
   914  061A  00A4               	movwf	_temperatura
   915  061B                     l1833:
   916                           
   917                           ;master_main.c: 105:     I2C_Master_Stop();
   918  061B  120A  118A  20FC  120A  118A  	fcall	_I2C_Master_Stop
   919  0620                     l1835:
   920                           
   921                           ;master_main.c: 106:     _delay((unsigned long)((200)*(8000000/4000.0)));
   922  0620  3003               	movlw	3
   923  0621  1283               	bcf	3,5	;RP0=0, select bank0
   924  0622  1303               	bcf	3,6	;RP1=0, select bank0
   925  0623  00B9               	movwf	??_main+2
   926  0624  3008               	movlw	8
   927  0625  00B8               	movwf	??_main+1
   928  0626  3076               	movlw	118
   929  0627  00B7               	movwf	??_main
   930  0628                     u537:
   931  0628  0BB7               	decfsz	??_main,f
   932  0629  2E28               	goto	u537
   933  062A  0BB8               	decfsz	??_main+1,f
   934  062B  2E28               	goto	u537
   935  062C  0BB9               	decfsz	??_main+2,f
   936  062D  2E28               	goto	u537
   937  062E  0000               	nop
   938  062F                     l1837:
   939                           
   940                           ;master_main.c: 110:     I2C_Master_Start();
   941  062F  120A  118A  20F3  120A  118A  	fcall	_I2C_Master_Start
   942  0634                     l1839:
   943                           
   944                           ;master_main.c: 111:     I2C_Master_Write(0xC1);
   945  0634  30C1               	movlw	193
   946  0635  00F0               	movwf	I2C_Master_Write@d
   947  0636  3000               	movlw	0
   948  0637  00F1               	movwf	I2C_Master_Write@d+1
   949  0638  120A  118A  2105  120A  118A  	fcall	_I2C_Master_Write
   950  063D                     l1841:
   951                           
   952                           ;master_main.c: 112:     contador = I2C_Master_Read(0);
   953  063D  3000               	movlw	0
   954  063E  00F0               	movwf	I2C_Master_Read@a
   955  063F  00F1               	movwf	I2C_Master_Read@a+1
   956  0640  120A  118A  2192  120A  118A  	fcall	_I2C_Master_Read
   957  0645  0870               	movf	?_I2C_Master_Read,w
   958  0646  1283               	bcf	3,5	;RP0=0, select bank0
   959  0647  1303               	bcf	3,6	;RP1=0, select bank0
   960  0648  00B7               	movwf	??_main
   961  0649  0837               	movf	??_main,w
   962  064A  00A6               	movwf	_contador
   963  064B                     l1843:
   964                           
   965                           ;master_main.c: 113:     I2C_Master_Stop();
   966  064B  120A  118A  20FC  120A  118A  	fcall	_I2C_Master_Stop
   967  0650                     l1845:
   968                           
   969                           ;master_main.c: 114:     _delay((unsigned long)((200)*(8000000/4000.0)));
   970  0650  3003               	movlw	3
   971  0651  1283               	bcf	3,5	;RP0=0, select bank0
   972  0652  1303               	bcf	3,6	;RP1=0, select bank0
   973  0653  00B9               	movwf	??_main+2
   974  0654  3008               	movlw	8
   975  0655  00B8               	movwf	??_main+1
   976  0656  3076               	movlw	118
   977  0657  00B7               	movwf	??_main
   978  0658                     u547:
   979  0658  0BB7               	decfsz	??_main,f
   980  0659  2E58               	goto	u547
   981  065A  0BB8               	decfsz	??_main+1,f
   982  065B  2E58               	goto	u547
   983  065C  0BB9               	decfsz	??_main+2,f
   984  065D  2E58               	goto	u547
   985  065E  0000               	nop
   986  065F                     l1847:
   987                           
   988                           ;master_main.c: 118:     centrado_LCD(0,0);
   989  065F  01F2               	clrf	centrado_LCD@y
   990  0660  3000               	movlw	0
   991  0661  120A  118A  2132  120A  118A  	fcall	_centrado_LCD
   992  0666                     l1849:
   993                           
   994                           ;master_main.c: 119:     _delay((unsigned long)((100)*(8000000/4000000.0)));
   995  0666  3041               	movlw	65
   996  0667  1283               	bcf	3,5	;RP0=0, select bank0
   997  0668  1303               	bcf	3,6	;RP1=0, select bank0
   998  0669  00B7               	movwf	??_main
   999  066A                     u557:
  1000  066A  0BB7               	decfsz	??_main,f
  1001  066B  2E6A               	goto	u557
  1002  066C  2E6D               	nop2
  1003  066D                     l1851:
  1004                           
  1005                           ;master_main.c: 120:     sed_LCD("S1:    S2:   S3:");
  1006  066D  3001               	movlw	(low ((STR_1-__stringbase)| (0+32768)))& (0+255)
  1007  066E  00F2               	movwf	sed_LCD@dato
  1008  066F  3080               	movlw	128
  1009  0670  00F3               	movwf	sed_LCD@dato+1
  1010  0671  120A  118A  2165  120A  118A  	fcall	_sed_LCD
  1011  0676                     l1853:
  1012                           
  1013                           ;master_main.c: 121:     _delay((unsigned long)((100)*(8000000/4000000.0)));
  1014  0676  3041               	movlw	65
  1015  0677  1283               	bcf	3,5	;RP0=0, select bank0
  1016  0678  1303               	bcf	3,6	;RP1=0, select bank0
  1017  0679  00B7               	movwf	??_main
  1018  067A                     u567:
  1019  067A  0BB7               	decfsz	??_main,f
  1020  067B  2E7A               	goto	u567
  1021  067C  2E7D               	nop2
  1022  067D                     l1855:
  1023                           
  1024                           ;master_main.c: 125:     conver = (510/255)*ADC;
  1025  067D  1283               	bcf	3,5	;RP0=0, select bank0
  1026  067E  1303               	bcf	3,6	;RP1=0, select bank0
  1027  067F  082E               	movf	_ADC,w
  1028  0680  00B7               	movwf	??_main
  1029  0681  01B8               	clrf	??_main+1
  1030  0682  1003               	clrc
  1031  0683  0D37               	rlf	??_main,w
  1032  0684  00A0               	movwf	_conver
  1033  0685  0D38               	rlf	??_main+1,w
  1034  0686  00A1               	movwf	_conver+1
  1035  0687  01A2               	clrf	_conver+2
  1036  0688  1BA1               	btfsc	_conver+1,7
  1037  0689  03A2               	decf	_conver+2,f
  1038  068A  0822               	movf	_conver+2,w
  1039  068B  00A3               	movwf	_conver+3
  1040  068C                     l1857:
  1041                           
  1042                           ;master_main.c: 127:     volt[0] = centenas(conver);
  1043  068C  0823               	movf	_conver+3,w
  1044  068D  00F3               	movwf	centenas@cantidad+3
  1045  068E  0822               	movf	_conver+2,w
  1046  068F  00F2               	movwf	centenas@cantidad+2
  1047  0690  0821               	movf	_conver+1,w
  1048  0691  00F1               	movwf	centenas@cantidad+1
  1049  0692  0820               	movf	_conver,w
  1050  0693  00F0               	movwf	centenas@cantidad
  1051  0694  120A  118A  22FA  120A  118A  	fcall	_centenas
  1052  0699  1283               	bcf	3,5	;RP0=0, select bank0
  1053  069A  1303               	bcf	3,6	;RP1=0, select bank0
  1054  069B  00B7               	movwf	??_main
  1055  069C  0837               	movf	??_main,w
  1056  069D  00AA               	movwf	_volt
  1057  069E                     l1859:
  1058                           
  1059                           ;master_main.c: 128:     volt[1] = '.';
  1060  069E  302E               	movlw	46
  1061  069F  00B7               	movwf	??_main
  1062  06A0  0837               	movf	??_main,w
  1063  06A1  00AB               	movwf	_volt+1
  1064  06A2                     l1861:
  1065                           
  1066                           ;master_main.c: 129:     volt[2] = decenas(conver);
  1067  06A2  0823               	movf	_conver+3,w
  1068  06A3  00F3               	movwf	decenas@cantidad+3
  1069  06A4  0822               	movf	_conver+2,w
  1070  06A5  00F2               	movwf	decenas@cantidad+2
  1071  06A6  0821               	movf	_conver+1,w
  1072  06A7  00F1               	movwf	decenas@cantidad+1
  1073  06A8  0820               	movf	_conver,w
  1074  06A9  00F0               	movwf	decenas@cantidad
  1075  06AA  120A  118A  23A9  120A  118A  	fcall	_decenas
  1076  06AF  1283               	bcf	3,5	;RP0=0, select bank0
  1077  06B0  1303               	bcf	3,6	;RP1=0, select bank0
  1078  06B1  00B7               	movwf	??_main
  1079  06B2  0837               	movf	??_main,w
  1080  06B3  00AC               	movwf	_volt+2
  1081  06B4                     l1863:
  1082                           
  1083                           ;master_main.c: 130:     volt[3] = unidades(conver);
  1084  06B4  0823               	movf	_conver+3,w
  1085  06B5  00F3               	movwf	unidades@cantidad+3
  1086  06B6  0822               	movf	_conver+2,w
  1087  06B7  00F2               	movwf	unidades@cantidad+2
  1088  06B8  0821               	movf	_conver+1,w
  1089  06B9  00F1               	movwf	unidades@cantidad+1
  1090  06BA  0820               	movf	_conver,w
  1091  06BB  00F0               	movwf	unidades@cantidad
  1092  06BC  120A  118A  248C  120A  118A  	fcall	_unidades
  1093  06C1  1283               	bcf	3,5	;RP0=0, select bank0
  1094  06C2  1303               	bcf	3,6	;RP1=0, select bank0
  1095  06C3  00B7               	movwf	??_main
  1096  06C4  0837               	movf	??_main,w
  1097  06C5  00AD               	movwf	_volt+3
  1098  06C6                     l1865:
  1099                           
  1100                           ;master_main.c: 131:     volt[4] = 'V';
  1101  06C6  3056               	movlw	86
  1102  06C7  00B7               	movwf	??_main
  1103  06C8  0837               	movf	??_main,w
  1104  06C9  00AE               	movwf	_volt+4
  1105  06CA                     l1867:
  1106                           
  1107                           ;master_main.c: 133:     centrado_LCD(1,0);
  1108  06CA  01F2               	clrf	centrado_LCD@y
  1109  06CB  3001               	movlw	1
  1110  06CC  120A  118A  2132  120A  118A  	fcall	_centrado_LCD
  1111  06D1                     l1869:
  1112                           
  1113                           ;master_main.c: 134:     _delay((unsigned long)((100)*(8000000/4000000.0)));
  1114  06D1  3041               	movlw	65
  1115  06D2  1283               	bcf	3,5	;RP0=0, select bank0
  1116  06D3  1303               	bcf	3,6	;RP1=0, select bank0
  1117  06D4  00B7               	movwf	??_main
  1118  06D5                     u577:
  1119  06D5  0BB7               	decfsz	??_main,f
  1120  06D6  2ED5               	goto	u577
  1121  06D7  2ED8               	nop2
  1122  06D8                     l1871:
  1123                           
  1124                           ;master_main.c: 135:     sed_LCD(&volt);
  1125  06D8  302A               	movlw	(low (_volt| 0))& (0+255)
  1126  06D9  00F2               	movwf	sed_LCD@dato
  1127  06DA  3000               	movlw	0
  1128  06DB  00F3               	movwf	sed_LCD@dato+1
  1129  06DC  120A  118A  2165  120A  118A  	fcall	_sed_LCD
  1130  06E1                     l1873:
  1131                           
  1132                           ;master_main.c: 136:     _delay((unsigned long)((100)*(8000000/4000000.0)));
  1133  06E1  3041               	movlw	65
  1134  06E2  1283               	bcf	3,5	;RP0=0, select bank0
  1135  06E3  1303               	bcf	3,6	;RP1=0, select bank0
  1136  06E4  00B7               	movwf	??_main
  1137  06E5                     u587:
  1138  06E5  0BB7               	decfsz	??_main,f
  1139  06E6  2EE5               	goto	u587
  1140  06E7  2EE8               	nop2
  1141  06E8                     l1875:
  1142                           
  1143                           ;master_main.c: 140:     conta[0] = decenas(contador);
  1144  06E8  1283               	bcf	3,5	;RP0=0, select bank0
  1145  06E9  1303               	bcf	3,6	;RP1=0, select bank0
  1146  06EA  0826               	movf	_contador,w
  1147  06EB  00B7               	movwf	??_main
  1148  06EC  01B8               	clrf	??_main+1
  1149  06ED  01B9               	clrf	??_main+2
  1150  06EE  01BA               	clrf	??_main+3
  1151  06EF  083A               	movf	??_main+3,w
  1152  06F0  00F3               	movwf	decenas@cantidad+3
  1153  06F1  0839               	movf	??_main+2,w
  1154  06F2  00F2               	movwf	decenas@cantidad+2
  1155  06F3  0838               	movf	??_main+1,w
  1156  06F4  00F1               	movwf	decenas@cantidad+1
  1157  06F5  0837               	movf	??_main,w
  1158  06F6  00F0               	movwf	decenas@cantidad
  1159  06F7  120A  118A  23A9  120A  118A  	fcall	_decenas
  1160  06FC  1283               	bcf	3,5	;RP0=0, select bank0
  1161  06FD  1303               	bcf	3,6	;RP1=0, select bank0
  1162  06FE  00BB               	movwf	??_main+4
  1163  06FF  083B               	movf	??_main+4,w
  1164  0700  00AD               	movwf	_conta
  1165  0701                     l1877:
  1166                           
  1167                           ;master_main.c: 141:     conta[1] = unidades(contador);
  1168  0701  0826               	movf	_contador,w
  1169  0702  00B7               	movwf	??_main
  1170  0703  01B8               	clrf	??_main+1
  1171  0704  01B9               	clrf	??_main+2
  1172  0705  01BA               	clrf	??_main+3
  1173  0706  083A               	movf	??_main+3,w
  1174  0707  00F3               	movwf	unidades@cantidad+3
  1175  0708  0839               	movf	??_main+2,w
  1176  0709  00F2               	movwf	unidades@cantidad+2
  1177  070A  0838               	movf	??_main+1,w
  1178  070B  00F1               	movwf	unidades@cantidad+1
  1179  070C  0837               	movf	??_main,w
  1180  070D  00F0               	movwf	unidades@cantidad
  1181  070E  120A  118A  248C  120A  118A  	fcall	_unidades
  1182  0713  1283               	bcf	3,5	;RP0=0, select bank0
  1183  0714  1303               	bcf	3,6	;RP1=0, select bank0
  1184  0715  00BB               	movwf	??_main+4
  1185  0716  083B               	movf	??_main+4,w
  1186  0717  00AE               	movwf	_conta+1
  1187  0718                     l1879:
  1188                           
  1189                           ;master_main.c: 143:     centrado_LCD(1,7);
  1190  0718  3007               	movlw	7
  1191  0719  00B7               	movwf	??_main
  1192  071A  0837               	movf	??_main,w
  1193  071B  00F2               	movwf	centrado_LCD@y
  1194  071C  3001               	movlw	1
  1195  071D  120A  118A  2132  120A  118A  	fcall	_centrado_LCD
  1196  0722                     l1881:
  1197                           
  1198                           ;master_main.c: 144:     _delay((unsigned long)((100)*(8000000/4000000.0)));
  1199  0722  3041               	movlw	65
  1200  0723  1283               	bcf	3,5	;RP0=0, select bank0
  1201  0724  1303               	bcf	3,6	;RP1=0, select bank0
  1202  0725  00B7               	movwf	??_main
  1203  0726                     u597:
  1204  0726  0BB7               	decfsz	??_main,f
  1205  0727  2F26               	goto	u597
  1206  0728  2F29               	nop2
  1207  0729                     l1883:
  1208                           
  1209                           ;master_main.c: 145:     sed_LCD(&conta);
  1210  0729  302D               	movlw	(low (_conta| 0))& (0+255)
  1211  072A  00F2               	movwf	sed_LCD@dato
  1212  072B  3000               	movlw	0
  1213  072C  00F3               	movwf	sed_LCD@dato+1
  1214  072D  120A  118A  2165  120A  118A  	fcall	_sed_LCD
  1215  0732                     l1885:
  1216                           
  1217                           ;master_main.c: 146:     _delay((unsigned long)((100)*(8000000/4000000.0)));
  1218  0732  3041               	movlw	65
  1219  0733  1283               	bcf	3,5	;RP0=0, select bank0
  1220  0734  1303               	bcf	3,6	;RP1=0, select bank0
  1221  0735  00B7               	movwf	??_main
  1222  0736                     u607:
  1223  0736  0BB7               	decfsz	??_main,f
  1224  0737  2F36               	goto	u607
  1225  0738  2F39               	nop2
  1226  0739                     l1887:
  1227                           
  1228                           ;master_main.c: 150:     if (temperatura >= 191) {
  1229  0739  1283               	bcf	3,5	;RP0=0, select bank0
  1230  073A  1303               	bcf	3,6	;RP1=0, select bank0
  1231  073B  0825               	movf	_temperatura+1,w
  1232  073C  3A80               	xorlw	128
  1233  073D  00FF               	movwf	btemp+1
  1234  073E  3080               	movlw	128
  1235  073F  027F               	subwf	btemp+1,w
  1236  0740  1D03               	skipz
  1237  0741  2F44               	goto	u505
  1238  0742  30BF               	movlw	191
  1239  0743  0224               	subwf	_temperatura,w
  1240  0744                     u505:
  1241  0744  1C03               	skipc
  1242  0745  2F47               	goto	u501
  1243  0746  2F48               	goto	u500
  1244  0747                     u501:
  1245  0747  2F8A               	goto	l1899
  1246  0748                     u500:
  1247  0748                     l1889:
  1248                           
  1249                           ;master_main.c: 151:         temperatura = -(temperatura - 256);
  1250  0748  1283               	bcf	3,5	;RP0=0, select bank0
  1251  0749  1303               	bcf	3,6	;RP1=0, select bank0
  1252  074A  0824               	movf	_temperatura,w
  1253  074B  3E00               	addlw	0
  1254  074C  00B7               	movwf	??_main
  1255  074D  0825               	movf	_temperatura+1,w
  1256  074E  1803               	skipnc
  1257  074F  3E01               	addlw	1
  1258  0750  3EFF               	addlw	255
  1259  0751  00B8               	movwf	??_main+1
  1260  0752  09B7               	comf	??_main,f
  1261  0753  09B8               	comf	??_main+1,f
  1262  0754  0AB7               	incf	??_main,f
  1263  0755  1903               	skipnz
  1264  0756  0AB8               	incf	??_main+1,f
  1265  0757  0837               	movf	??_main,w
  1266  0758  00A4               	movwf	_temperatura
  1267  0759  0838               	movf	??_main+1,w
  1268  075A  00A5               	movwf	_temperatura+1
  1269  075B                     l1891:
  1270                           
  1271                           ;master_main.c: 152:         tempe[0] = '-';
  1272  075B  302D               	movlw	45
  1273  075C  00B7               	movwf	??_main
  1274  075D  0837               	movf	??_main,w
  1275  075E  00A7               	movwf	_tempe
  1276  075F                     l1893:
  1277                           
  1278                           ;master_main.c: 153:         tempe[1] = decenas(temperatura);
  1279  075F  0824               	movf	_temperatura,w
  1280  0760  00F0               	movwf	decenas@cantidad
  1281  0761  0825               	movf	_temperatura+1,w
  1282  0762  00F1               	movwf	decenas@cantidad+1
  1283  0763  3000               	movlw	0
  1284  0764  1BF1               	btfsc	decenas@cantidad+1,7
  1285  0765  30FF               	movlw	255
  1286  0766  00F2               	movwf	decenas@cantidad+2
  1287  0767  00F3               	movwf	decenas@cantidad+3
  1288  0768  120A  118A  23A9  120A  118A  	fcall	_decenas
  1289  076D  1283               	bcf	3,5	;RP0=0, select bank0
  1290  076E  1303               	bcf	3,6	;RP1=0, select bank0
  1291  076F  00B7               	movwf	??_main
  1292  0770  0837               	movf	??_main,w
  1293  0771  00A8               	movwf	_tempe+1
  1294  0772                     l1895:
  1295                           
  1296                           ;master_main.c: 154:         tempe[2] = unidades(temperatura);
  1297  0772  0824               	movf	_temperatura,w
  1298  0773  00F0               	movwf	unidades@cantidad
  1299  0774  0825               	movf	_temperatura+1,w
  1300  0775  00F1               	movwf	unidades@cantidad+1
  1301  0776  3000               	movlw	0
  1302  0777  1BF1               	btfsc	unidades@cantidad+1,7
  1303  0778  30FF               	movlw	255
  1304  0779  00F2               	movwf	unidades@cantidad+2
  1305  077A  00F3               	movwf	unidades@cantidad+3
  1306  077B  120A  118A  248C  120A  118A  	fcall	_unidades
  1307  0780  1283               	bcf	3,5	;RP0=0, select bank0
  1308  0781  1303               	bcf	3,6	;RP1=0, select bank0
  1309  0782  00B7               	movwf	??_main
  1310  0783  0837               	movf	??_main,w
  1311  0784  00A9               	movwf	_tempe+2
  1312  0785                     l1897:
  1313                           
  1314                           ;master_main.c: 155:         tempe[3] = 'C';
  1315  0785  3043               	movlw	67
  1316  0786  00B7               	movwf	??_main
  1317  0787  0837               	movf	??_main,w
  1318  0788  00AA               	movwf	_tempe+3
  1319                           
  1320                           ;master_main.c: 156:     }
  1321  0789  2FC6               	goto	l1903
  1322  078A                     l1899:
  1323                           
  1324                           ;master_main.c: 158:         tempe[0] = centenas(temperatura);
  1325  078A  1283               	bcf	3,5	;RP0=0, select bank0
  1326  078B  1303               	bcf	3,6	;RP1=0, select bank0
  1327  078C  0824               	movf	_temperatura,w
  1328  078D  00F0               	movwf	centenas@cantidad
  1329  078E  0825               	movf	_temperatura+1,w
  1330  078F  00F1               	movwf	centenas@cantidad+1
  1331  0790  3000               	movlw	0
  1332  0791  1BF1               	btfsc	centenas@cantidad+1,7
  1333  0792  30FF               	movlw	255
  1334  0793  00F2               	movwf	centenas@cantidad+2
  1335  0794  00F3               	movwf	centenas@cantidad+3
  1336  0795  120A  118A  22FA  120A  118A  	fcall	_centenas
  1337  079A  1283               	bcf	3,5	;RP0=0, select bank0
  1338  079B  1303               	bcf	3,6	;RP1=0, select bank0
  1339  079C  00B7               	movwf	??_main
  1340  079D  0837               	movf	??_main,w
  1341  079E  00A7               	movwf	_tempe
  1342                           
  1343                           ;master_main.c: 159:         tempe[1] = decenas(temperatura);
  1344  079F  0824               	movf	_temperatura,w
  1345  07A0  00F0               	movwf	decenas@cantidad
  1346  07A1  0825               	movf	_temperatura+1,w
  1347  07A2  00F1               	movwf	decenas@cantidad+1
  1348  07A3  3000               	movlw	0
  1349  07A4  1BF1               	btfsc	decenas@cantidad+1,7
  1350  07A5  30FF               	movlw	255
  1351  07A6  00F2               	movwf	decenas@cantidad+2
  1352  07A7  00F3               	movwf	decenas@cantidad+3
  1353  07A8  120A  118A  23A9  120A  118A  	fcall	_decenas
  1354  07AD  1283               	bcf	3,5	;RP0=0, select bank0
  1355  07AE  1303               	bcf	3,6	;RP1=0, select bank0
  1356  07AF  00B7               	movwf	??_main
  1357  07B0  0837               	movf	??_main,w
  1358  07B1  00A8               	movwf	_tempe+1
  1359                           
  1360                           ;master_main.c: 160:         tempe[2] = unidades(temperatura);
  1361  07B2  0824               	movf	_temperatura,w
  1362  07B3  00F0               	movwf	unidades@cantidad
  1363  07B4  0825               	movf	_temperatura+1,w
  1364  07B5  00F1               	movwf	unidades@cantidad+1
  1365  07B6  3000               	movlw	0
  1366  07B7  1BF1               	btfsc	unidades@cantidad+1,7
  1367  07B8  30FF               	movlw	255
  1368  07B9  00F2               	movwf	unidades@cantidad+2
  1369  07BA  00F3               	movwf	unidades@cantidad+3
  1370  07BB  120A  118A  248C  120A  118A  	fcall	_unidades
  1371  07C0  1283               	bcf	3,5	;RP0=0, select bank0
  1372  07C1  1303               	bcf	3,6	;RP1=0, select bank0
  1373  07C2  00B7               	movwf	??_main
  1374  07C3  0837               	movf	??_main,w
  1375  07C4  00A9               	movwf	_tempe+2
  1376  07C5  2F85               	goto	l1897
  1377  07C6                     l1903:
  1378                           
  1379                           ;master_main.c: 164:     centrado_LCD(1,12);
  1380  07C6  300C               	movlw	12
  1381  07C7  00B7               	movwf	??_main
  1382  07C8  0837               	movf	??_main,w
  1383  07C9  00F2               	movwf	centrado_LCD@y
  1384  07CA  3001               	movlw	1
  1385  07CB  120A  118A  2132  120A  118A  	fcall	_centrado_LCD
  1386  07D0                     l1905:
  1387                           
  1388                           ;master_main.c: 165:     _delay((unsigned long)((100)*(8000000/4000000.0)));
  1389  07D0  3041               	movlw	65
  1390  07D1  1283               	bcf	3,5	;RP0=0, select bank0
  1391  07D2  1303               	bcf	3,6	;RP1=0, select bank0
  1392  07D3  00B7               	movwf	??_main
  1393  07D4                     u617:
  1394  07D4  0BB7               	decfsz	??_main,f
  1395  07D5  2FD4               	goto	u617
  1396  07D6  2FD7               	nop2
  1397  07D7                     l1907:
  1398                           
  1399                           ;master_main.c: 166:     sed_LCD(&tempe);
  1400  07D7  3027               	movlw	(low (_tempe| 0))& (0+255)
  1401  07D8  00F2               	movwf	sed_LCD@dato
  1402  07D9  3000               	movlw	0
  1403  07DA  00F3               	movwf	sed_LCD@dato+1
  1404  07DB  120A  118A  2165  120A  118A  	fcall	_sed_LCD
  1405  07E0                     l1909:
  1406                           
  1407                           ;master_main.c: 167:     _delay((unsigned long)((100)*(8000000/4000000.0)));
  1408  07E0  3041               	movlw	65
  1409  07E1  1283               	bcf	3,5	;RP0=0, select bank0
  1410  07E2  1303               	bcf	3,6	;RP1=0, select bank0
  1411  07E3  00B7               	movwf	??_main
  1412  07E4                     u627:
  1413  07E4  0BB7               	decfsz	??_main,f
  1414  07E5  2FE4               	goto	u627
  1415  07E6  2FE7               	nop2
  1416  07E7  2DA5               	goto	l1807
  1417  07E8  120A  118A  2800   	ljmp	start
  1418  07EB                     __end_of_main:
  1419                           
  1420                           	psect	text1
  1421  048C                     __ptext1:	
  1422 ;; *************** function _unidades *****************
  1423 ;; Defined at:
  1424 ;;		line 201 in file "libreria_master.c"
  1425 ;; Parameters:    Size  Location     Type
  1426 ;;  cantidad        4    0[COMMON] unsigned long 
  1427 ;; Auto vars:     Size  Location     Type
  1428 ;;  cont            4    8[COMMON] unsigned long 
  1429 ;;  unidades        1   12[COMMON] unsigned char 
  1430 ;; Return value:  Size  Location     Type
  1431 ;;                  1    wreg      unsigned char 
  1432 ;; Registers used:
  1433 ;;		wreg, fsr0l, fsr0h, status,2, status,0
  1434 ;; Tracked objects:
  1435 ;;		On entry : 0/0
  1436 ;;		On exit  : 0/0
  1437 ;;		Unchanged: 0/0
  1438 ;; Data sizes:     COMMON   BANK0   BANK1   BANK3   BANK2
  1439 ;;      Params:         4       0       0       0       0
  1440 ;;      Locals:         5       0       0       0       0
  1441 ;;      Temps:          4       0       0       0       0
  1442 ;;      Totals:        13       0       0       0       0
  1443 ;;Total ram usage:       13 bytes
  1444 ;; Hardware stack levels used:    1
  1445 ;; This function calls:
  1446 ;;		Nothing
  1447 ;; This function is called by:
  1448 ;;		_main
  1449 ;; This function uses a non-reentrant model
  1450 ;;
  1451                           
  1452                           
  1453                           ;psect for function _unidades
  1454  048C                     _unidades:
  1455  048C                     l1739:	
  1456                           ;incstack = 0
  1457                           ; Regs used in _unidades: [wreg-fsr0h+status,2+status,0]
  1458                           
  1459                           
  1460                           ;libreria_master.c: 203:     char unidades = 0;
  1461  048C  01FC               	clrf	unidades@unidades
  1462  048D                     l1741:
  1463                           
  1464                           ;libreria_master.c: 204:     uint32_t cont = 0;
  1465  048D  3000               	movlw	0
  1466  048E  00FB               	movwf	unidades@cont+3
  1467  048F  3000               	movlw	0
  1468  0490  00FA               	movwf	unidades@cont+2
  1469  0491  3000               	movlw	0
  1470  0492  00F9               	movwf	unidades@cont+1
  1471  0493  3000               	movlw	0
  1472  0494  00F8               	movwf	unidades@cont
  1473                           
  1474                           ;libreria_master.c: 206:     while (cantidad >= 100) {
  1475  0495  2CB8               	goto	l1745
  1476  0496                     l1743:
  1477                           
  1478                           ;libreria_master.c: 207:         cantidad = cantidad - 100;
  1479  0496  309C               	movlw	156
  1480  0497  00F4               	movwf	??_unidades
  1481  0498  30FF               	movlw	255
  1482  0499  00F5               	movwf	??_unidades+1
  1483  049A  30FF               	movlw	255
  1484  049B  00F6               	movwf	??_unidades+2
  1485  049C  30FF               	movlw	255
  1486  049D  00F7               	movwf	??_unidades+3
  1487  049E  0870               	movf	unidades@cantidad,w
  1488  049F  07F4               	addwf	??_unidades,f
  1489  04A0  0871               	movf	unidades@cantidad+1,w
  1490  04A1  1803               	skipnc
  1491  04A2  0F71               	incfsz	unidades@cantidad+1,w
  1492  04A3  2CA5               	goto	u450
  1493  04A4  2CA6               	goto	u451
  1494  04A5                     u450:
  1495  04A5  07F5               	addwf	??_unidades+1,f
  1496  04A6                     u451:
  1497  04A6  0872               	movf	unidades@cantidad+2,w
  1498  04A7  1803               	skipnc
  1499  04A8  0F72               	incfsz	unidades@cantidad+2,w
  1500  04A9  2CAB               	goto	u452
  1501  04AA  2CAC               	goto	u453
  1502  04AB                     u452:
  1503  04AB  07F6               	addwf	??_unidades+2,f
  1504  04AC                     u453:
  1505  04AC  0873               	movf	unidades@cantidad+3,w
  1506  04AD  1803               	skipnc
  1507  04AE  0A73               	incf	unidades@cantidad+3,w
  1508  04AF  07F7               	addwf	??_unidades+3,f
  1509  04B0  0877               	movf	??_unidades+3,w
  1510  04B1  00F3               	movwf	unidades@cantidad+3
  1511  04B2  0876               	movf	??_unidades+2,w
  1512  04B3  00F2               	movwf	unidades@cantidad+2
  1513  04B4  0875               	movf	??_unidades+1,w
  1514  04B5  00F1               	movwf	unidades@cantidad+1
  1515  04B6  0874               	movf	??_unidades,w
  1516  04B7  00F0               	movwf	unidades@cantidad
  1517  04B8                     l1745:
  1518                           
  1519                           ;libreria_master.c: 206:     while (cantidad >= 100) {
  1520  04B8  0873               	movf	unidades@cantidad+3,w
  1521  04B9  1D03               	btfss	3,2
  1522  04BA  2CC8               	goto	u461
  1523  04BB  0872               	movf	unidades@cantidad+2,w
  1524  04BC  1D03               	btfss	3,2
  1525  04BD  2CC8               	goto	u461
  1526  04BE  0871               	movf	unidades@cantidad+1,w
  1527  04BF  1D03               	btfss	3,2
  1528  04C0  2CC8               	goto	u461
  1529  04C1  3064               	movlw	100
  1530  04C2  0270               	subwf	unidades@cantidad,w
  1531  04C3  1D03               	skipz
  1532  04C4  2CC5               	goto	u463
  1533  04C5                     u463:
  1534  04C5  1803               	btfsc	3,0
  1535  04C6  2CC8               	goto	u461
  1536  04C7  2CC9               	goto	u460
  1537  04C8                     u461:
  1538  04C8  2C96               	goto	l1743
  1539  04C9                     u460:
  1540  04C9  2CEC               	goto	l1749
  1541  04CA                     l1747:
  1542                           
  1543                           ;libreria_master.c: 211:         cantidad = cantidad -10;
  1544  04CA  30F6               	movlw	246
  1545  04CB  00F4               	movwf	??_unidades
  1546  04CC  30FF               	movlw	255
  1547  04CD  00F5               	movwf	??_unidades+1
  1548  04CE  30FF               	movlw	255
  1549  04CF  00F6               	movwf	??_unidades+2
  1550  04D0  30FF               	movlw	255
  1551  04D1  00F7               	movwf	??_unidades+3
  1552  04D2  0870               	movf	unidades@cantidad,w
  1553  04D3  07F4               	addwf	??_unidades,f
  1554  04D4  0871               	movf	unidades@cantidad+1,w
  1555  04D5  1803               	skipnc
  1556  04D6  0F71               	incfsz	unidades@cantidad+1,w
  1557  04D7  2CD9               	goto	u470
  1558  04D8  2CDA               	goto	u471
  1559  04D9                     u470:
  1560  04D9  07F5               	addwf	??_unidades+1,f
  1561  04DA                     u471:
  1562  04DA  0872               	movf	unidades@cantidad+2,w
  1563  04DB  1803               	skipnc
  1564  04DC  0F72               	incfsz	unidades@cantidad+2,w
  1565  04DD  2CDF               	goto	u472
  1566  04DE  2CE0               	goto	u473
  1567  04DF                     u472:
  1568  04DF  07F6               	addwf	??_unidades+2,f
  1569  04E0                     u473:
  1570  04E0  0873               	movf	unidades@cantidad+3,w
  1571  04E1  1803               	skipnc
  1572  04E2  0A73               	incf	unidades@cantidad+3,w
  1573  04E3  07F7               	addwf	??_unidades+3,f
  1574  04E4  0877               	movf	??_unidades+3,w
  1575  04E5  00F3               	movwf	unidades@cantidad+3
  1576  04E6  0876               	movf	??_unidades+2,w
  1577  04E7  00F2               	movwf	unidades@cantidad+2
  1578  04E8  0875               	movf	??_unidades+1,w
  1579  04E9  00F1               	movwf	unidades@cantidad+1
  1580  04EA  0874               	movf	??_unidades,w
  1581  04EB  00F0               	movwf	unidades@cantidad
  1582  04EC                     l1749:
  1583                           
  1584                           ;libreria_master.c: 210:     while (cantidad >= 10) {
  1585  04EC  0873               	movf	unidades@cantidad+3,w
  1586  04ED  1D03               	btfss	3,2
  1587  04EE  2CFC               	goto	u481
  1588  04EF  0872               	movf	unidades@cantidad+2,w
  1589  04F0  1D03               	btfss	3,2
  1590  04F1  2CFC               	goto	u481
  1591  04F2  0871               	movf	unidades@cantidad+1,w
  1592  04F3  1D03               	btfss	3,2
  1593  04F4  2CFC               	goto	u481
  1594  04F5  300A               	movlw	10
  1595  04F6  0270               	subwf	unidades@cantidad,w
  1596  04F7  1D03               	skipz
  1597  04F8  2CF9               	goto	u483
  1598  04F9                     u483:
  1599  04F9  1803               	btfsc	3,0
  1600  04FA  2CFC               	goto	u481
  1601  04FB  2CFD               	goto	u480
  1602  04FC                     u481:
  1603  04FC  2CCA               	goto	l1747
  1604  04FD                     u480:
  1605  04FD                     l1751:
  1606                           
  1607                           ;libreria_master.c: 213:     if (cantidad < 10) {
  1608  04FD  0873               	movf	unidades@cantidad+3,w
  1609  04FE  1D03               	btfss	3,2
  1610  04FF  2D0D               	goto	u491
  1611  0500  0872               	movf	unidades@cantidad+2,w
  1612  0501  1D03               	btfss	3,2
  1613  0502  2D0D               	goto	u491
  1614  0503  0871               	movf	unidades@cantidad+1,w
  1615  0504  1D03               	btfss	3,2
  1616  0505  2D0D               	goto	u491
  1617  0506  300A               	movlw	10
  1618  0507  0270               	subwf	unidades@cantidad,w
  1619  0508  1D03               	skipz
  1620  0509  2D0A               	goto	u493
  1621  050A                     u493:
  1622  050A  1803               	btfsc	3,0
  1623  050B  2D0D               	goto	u491
  1624  050C  2D0E               	goto	u490
  1625  050D                     u491:
  1626  050D  2D49               	goto	l1777
  1627  050E                     u490:
  1628  050E                     l1753:
  1629                           
  1630                           ;libreria_master.c: 214:         cont = cantidad;
  1631  050E  0873               	movf	unidades@cantidad+3,w
  1632  050F  00FB               	movwf	unidades@cont+3
  1633  0510  0872               	movf	unidades@cantidad+2,w
  1634  0511  00FA               	movwf	unidades@cont+2
  1635  0512  0871               	movf	unidades@cantidad+1,w
  1636  0513  00F9               	movwf	unidades@cont+1
  1637  0514  0870               	movf	unidades@cantidad,w
  1638  0515  00F8               	movwf	unidades@cont
  1639  0516  2D49               	goto	l1777
  1640  0517                     l1755:
  1641  0517  3030               	movlw	48
  1642  0518  00F4               	movwf	??_unidades
  1643  0519  0874               	movf	??_unidades,w
  1644  051A  00FC               	movwf	unidades@unidades
  1645                           
  1646                           ;libreria_master.c: 218:         break;
  1647  051B  2D78               	goto	l1779
  1648  051C                     l1757:
  1649  051C  3031               	movlw	49
  1650  051D  00F4               	movwf	??_unidades
  1651  051E  0874               	movf	??_unidades,w
  1652  051F  00FC               	movwf	unidades@unidades
  1653                           
  1654                           ;libreria_master.c: 220:         break;
  1655  0520  2D78               	goto	l1779
  1656  0521                     l1759:
  1657  0521  3032               	movlw	50
  1658  0522  00F4               	movwf	??_unidades
  1659  0523  0874               	movf	??_unidades,w
  1660  0524  00FC               	movwf	unidades@unidades
  1661                           
  1662                           ;libreria_master.c: 222:         break;
  1663  0525  2D78               	goto	l1779
  1664  0526                     l1761:
  1665  0526  3033               	movlw	51
  1666  0527  00F4               	movwf	??_unidades
  1667  0528  0874               	movf	??_unidades,w
  1668  0529  00FC               	movwf	unidades@unidades
  1669                           
  1670                           ;libreria_master.c: 224:         break;
  1671  052A  2D78               	goto	l1779
  1672  052B                     l1763:
  1673  052B  3034               	movlw	52
  1674  052C  00F4               	movwf	??_unidades
  1675  052D  0874               	movf	??_unidades,w
  1676  052E  00FC               	movwf	unidades@unidades
  1677                           
  1678                           ;libreria_master.c: 226:         break;
  1679  052F  2D78               	goto	l1779
  1680  0530                     l1765:
  1681  0530  3035               	movlw	53
  1682  0531  00F4               	movwf	??_unidades
  1683  0532  0874               	movf	??_unidades,w
  1684  0533  00FC               	movwf	unidades@unidades
  1685                           
  1686                           ;libreria_master.c: 228:         break;
  1687  0534  2D78               	goto	l1779
  1688  0535                     l1767:
  1689  0535  3036               	movlw	54
  1690  0536  00F4               	movwf	??_unidades
  1691  0537  0874               	movf	??_unidades,w
  1692  0538  00FC               	movwf	unidades@unidades
  1693                           
  1694                           ;libreria_master.c: 230:         break;
  1695  0539  2D78               	goto	l1779
  1696  053A                     l1769:
  1697  053A  3037               	movlw	55
  1698  053B  00F4               	movwf	??_unidades
  1699  053C  0874               	movf	??_unidades,w
  1700  053D  00FC               	movwf	unidades@unidades
  1701                           
  1702                           ;libreria_master.c: 232:         break;
  1703  053E  2D78               	goto	l1779
  1704  053F                     l1771:
  1705  053F  3038               	movlw	56
  1706  0540  00F4               	movwf	??_unidades
  1707  0541  0874               	movf	??_unidades,w
  1708  0542  00FC               	movwf	unidades@unidades
  1709                           
  1710                           ;libreria_master.c: 234:         break;
  1711  0543  2D78               	goto	l1779
  1712  0544                     l1773:
  1713  0544  3039               	movlw	57
  1714  0545  00F4               	movwf	??_unidades
  1715  0546  0874               	movf	??_unidades,w
  1716  0547  00FC               	movwf	unidades@unidades
  1717                           
  1718                           ;libreria_master.c: 236:         break;
  1719  0548  2D78               	goto	l1779
  1720  0549                     l1777:
  1721                           
  1722                           ; Switch on 2 bytes has been partitioned into a top level switch of size 1, and 2 sub-sw
      +                          itches
  1723                           ; Switch size 1, requested type "simple"
  1724                           ; Number of cases is 1, Range of values is 0 to 0
  1725                           ; switch strategies available:
  1726                           ; Name         Instructions Cycles
  1727                           ; simple_byte            4     3 (average)
  1728                           ; direct_byte           11     8 (fixed)
  1729                           ; jumptable            260     6 (fixed)
  1730                           ;	Chosen strategy is simple_byte
  1731  0549  087B               	movf	unidades@cont+3,w
  1732  054A  3A00               	xorlw	0	; case 0
  1733  054B  1903               	skipnz
  1734  054C  2D73               	goto	l2113
  1735  054D  2D78               	goto	l1779
  1736  054E                     l2111:
  1737                           
  1738                           ; Switch on 2 bytes has been partitioned into a top level switch of size 1, and 1 sub-sw
      +                          itches
  1739                           ; Switch size 1, requested type "simple"
  1740                           ; Number of cases is 1, Range of values is 0 to 0
  1741                           ; switch strategies available:
  1742                           ; Name         Instructions Cycles
  1743                           ; simple_byte            4     3 (average)
  1744                           ; direct_byte           11     8 (fixed)
  1745                           ; jumptable            260     6 (fixed)
  1746                           ;	Chosen strategy is simple_byte
  1747  054E  0879               	movf	unidades@cont+1,w
  1748  054F  3A00               	xorlw	0	; case 0
  1749  0550  1903               	skipnz
  1750  0551  2D53               	goto	l2115
  1751  0552  2D78               	goto	l1779
  1752  0553                     l2115:
  1753                           
  1754                           ; Switch size 1, requested type "simple"
  1755                           ; Number of cases is 10, Range of values is 0 to 9
  1756                           ; switch strategies available:
  1757                           ; Name         Instructions Cycles
  1758                           ; simple_byte           31    16 (average)
  1759                           ; direct_byte           38     8 (fixed)
  1760                           ; jumptable            260     6 (fixed)
  1761                           ;	Chosen strategy is simple_byte
  1762  0553  0878               	movf	unidades@cont,w
  1763  0554  3A00               	xorlw	0	; case 0
  1764  0555  1903               	skipnz
  1765  0556  2D17               	goto	l1755
  1766  0557  3A01               	xorlw	1	; case 1
  1767  0558  1903               	skipnz
  1768  0559  2D1C               	goto	l1757
  1769  055A  3A03               	xorlw	3	; case 2
  1770  055B  1903               	skipnz
  1771  055C  2D21               	goto	l1759
  1772  055D  3A01               	xorlw	1	; case 3
  1773  055E  1903               	skipnz
  1774  055F  2D26               	goto	l1761
  1775  0560  3A07               	xorlw	7	; case 4
  1776  0561  1903               	skipnz
  1777  0562  2D2B               	goto	l1763
  1778  0563  3A01               	xorlw	1	; case 5
  1779  0564  1903               	skipnz
  1780  0565  2D30               	goto	l1765
  1781  0566  3A03               	xorlw	3	; case 6
  1782  0567  1903               	skipnz
  1783  0568  2D35               	goto	l1767
  1784  0569  3A01               	xorlw	1	; case 7
  1785  056A  1903               	skipnz
  1786  056B  2D3A               	goto	l1769
  1787  056C  3A0F               	xorlw	15	; case 8
  1788  056D  1903               	skipnz
  1789  056E  2D3F               	goto	l1771
  1790  056F  3A01               	xorlw	1	; case 9
  1791  0570  1903               	skipnz
  1792  0571  2D44               	goto	l1773
  1793  0572  2D78               	goto	l1779
  1794  0573                     l2113:
  1795                           
  1796                           ; Switch size 1, requested type "simple"
  1797                           ; Number of cases is 1, Range of values is 0 to 0
  1798                           ; switch strategies available:
  1799                           ; Name         Instructions Cycles
  1800                           ; simple_byte            4     3 (average)
  1801                           ; direct_byte           11     8 (fixed)
  1802                           ; jumptable            260     6 (fixed)
  1803                           ;	Chosen strategy is simple_byte
  1804  0573  087A               	movf	unidades@cont+2,w
  1805  0574  3A00               	xorlw	0	; case 0
  1806  0575  1903               	skipnz
  1807  0576  2D4E               	goto	l2111
  1808  0577  2D78               	goto	l1779
  1809  0578                     l1779:
  1810                           
  1811                           ;libreria_master.c: 238:     return (unidades) ;
  1812  0578  087C               	movf	unidades@unidades,w
  1813  0579                     l237:
  1814  0579  0008               	return
  1815  057A                     __end_of_unidades:
  1816                           
  1817                           	psect	text2
  1818  0165                     __ptext2:	
  1819 ;; *************** function _sed_LCD *****************
  1820 ;; Defined at:
  1821 ;;		line 95 in file "libreria_master.c"
  1822 ;; Parameters:    Size  Location     Type
  1823 ;;  dato            2    2[COMMON] PTR unsigned char 
  1824 ;;		 -> tempe(3), conta(1), volt(3), STR_1(17), 
  1825 ;; Auto vars:     Size  Location     Type
  1826 ;;		None
  1827 ;; Return value:  Size  Location     Type
  1828 ;;                  1    wreg      void 
  1829 ;; Registers used:
  1830 ;;		wreg, fsr0l, fsr0h, status,2, status,0, btemp+1, pclath, cstack
  1831 ;; Tracked objects:
  1832 ;;		On entry : 0/0
  1833 ;;		On exit  : 0/0
  1834 ;;		Unchanged: 0/0
  1835 ;; Data sizes:     COMMON   BANK0   BANK1   BANK3   BANK2
  1836 ;;      Params:         2       0       0       0       0
  1837 ;;      Locals:         0       0       0       0       0
  1838 ;;      Temps:          1       0       0       0       0
  1839 ;;      Totals:         3       0       0       0       0
  1840 ;;Total ram usage:        3 bytes
  1841 ;; Hardware stack levels used:    1
  1842 ;; Hardware stack levels required when called:    1
  1843 ;; This function calls:
  1844 ;;		_caracteres_LCD
  1845 ;; This function is called by:
  1846 ;;		_main
  1847 ;; This function uses a non-reentrant model
  1848 ;;
  1849                           
  1850                           
  1851                           ;psect for function _sed_LCD
  1852  0165                     _sed_LCD:
  1853  0165                     l1629:	
  1854                           ;incstack = 0
  1855                           ; Regs used in _sed_LCD: [wreg-fsr0h+status,2+status,0+btemp+1+pclath+cstack]
  1856                           
  1857                           
  1858                           ;libreria_master.c: 96:     while(*dato){
  1859  0165  2981               	goto	l1637
  1860  0166                     l1631:
  1861                           
  1862                           ;libreria_master.c: 97:         _delay((unsigned long)((100)*(8000000/4000000.0)));
  1863  0166  3042               	movlw	66
  1864  0167  00F4               	movwf	??_sed_LCD
  1865  0168                     u637:
  1866  0168  0BF4               	decfsz	??_sed_LCD,f
  1867  0169  2968               	goto	u637
  1868  016A  0000               	nop
  1869  016B                     l1633:
  1870                           
  1871                           ;libreria_master.c: 98:         caracteres_LCD(*dato);
  1872  016B  0873               	movf	sed_LCD@dato+1,w
  1873  016C  1283               	bcf	3,5	;RP0=0, select bank0
  1874  016D  1303               	bcf	3,6	;RP1=0, select bank0
  1875  016E  00FF               	movwf	btemp+1
  1876  016F  0872               	movf	sed_LCD@dato,w
  1877  0170  0084               	movwf	4
  1878  0171  120A  118A  2003  120A  118A  	fcall	stringtab
  1879  0176  120A  118A  2148  120A  118A  	fcall	_caracteres_LCD
  1880  017B                     l1635:
  1881                           
  1882                           ;libreria_master.c: 99:         dato++;
  1883  017B  3001               	movlw	1
  1884  017C  07F2               	addwf	sed_LCD@dato,f
  1885  017D  1803               	skipnc
  1886  017E  0AF3               	incf	sed_LCD@dato+1,f
  1887  017F  3000               	movlw	0
  1888  0180  07F3               	addwf	sed_LCD@dato+1,f
  1889  0181                     l1637:
  1890                           
  1891                           ;libreria_master.c: 96:     while(*dato){
  1892  0181  0873               	movf	sed_LCD@dato+1,w
  1893  0182  1283               	bcf	3,5	;RP0=0, select bank0
  1894  0183  1303               	bcf	3,6	;RP1=0, select bank0
  1895  0184  00FF               	movwf	btemp+1
  1896  0185  0872               	movf	sed_LCD@dato,w
  1897  0186  0084               	movwf	4
  1898  0187  120A  118A  2003  120A  118A  	fcall	stringtab
  1899  018C  3A00               	xorlw	0
  1900  018D  1D03               	skipz
  1901  018E  2990               	goto	u381
  1902  018F  2991               	goto	u380
  1903  0190                     u381:
  1904  0190  2966               	goto	l1631
  1905  0191                     u380:
  1906  0191                     l173:
  1907  0191  0008               	return
  1908  0192                     __end_of_sed_LCD:
  1909                           
  1910                           	psect	text3
  1911  0148                     __ptext3:	
  1912 ;; *************** function _caracteres_LCD *****************
  1913 ;; Defined at:
  1914 ;;		line 104 in file "libreria_master.c"
  1915 ;; Parameters:    Size  Location     Type
  1916 ;;  data            1    wreg     unsigned char 
  1917 ;; Auto vars:     Size  Location     Type
  1918 ;;  data            1    1[COMMON] unsigned char 
  1919 ;; Return value:  Size  Location     Type
  1920 ;;                  1    wreg      void 
  1921 ;; Registers used:
  1922 ;;		wreg
  1923 ;; Tracked objects:
  1924 ;;		On entry : 0/0
  1925 ;;		On exit  : 0/0
  1926 ;;		Unchanged: 0/0
  1927 ;; Data sizes:     COMMON   BANK0   BANK1   BANK3   BANK2
  1928 ;;      Params:         0       0       0       0       0
  1929 ;;      Locals:         1       0       0       0       0
  1930 ;;      Temps:          1       0       0       0       0
  1931 ;;      Totals:         2       0       0       0       0
  1932 ;;Total ram usage:        2 bytes
  1933 ;; Hardware stack levels used:    1
  1934 ;; This function calls:
  1935 ;;		Nothing
  1936 ;; This function is called by:
  1937 ;;		_sed_LCD
  1938 ;; This function uses a non-reentrant model
  1939 ;;
  1940                           
  1941                           
  1942                           ;psect for function _caracteres_LCD
  1943  0148                     _caracteres_LCD:
  1944                           
  1945                           ;incstack = 0
  1946                           ; Regs used in _caracteres_LCD: [wreg]
  1947                           ;caracteres_LCD@data stored from wreg
  1948  0148  00F1               	movwf	caracteres_LCD@data
  1949  0149                     l1493:
  1950                           
  1951                           ;libreria_master.c: 105:     _delay((unsigned long)((100)*(8000000/4000000.0)));
  1952  0149  3042               	movlw	66
  1953  014A  00F0               	movwf	??_caracteres_LCD
  1954  014B                     u647:
  1955  014B  0BF0               	decfsz	??_caracteres_LCD,f
  1956  014C  294B               	goto	u647
  1957  014D  0000               	nop
  1958                           
  1959                           ;libreria_master.c: 107:     PORTD = data;
  1960  014E  0871               	movf	caracteres_LCD@data,w
  1961  014F  1283               	bcf	3,5	;RP0=0, select bank0
  1962  0150  1303               	bcf	3,6	;RP1=0, select bank0
  1963  0151  0088               	movwf	8	;volatile
  1964  0152                     l1495:
  1965                           
  1966                           ;libreria_master.c: 109:     RE0 = 1;
  1967  0152  1409               	bsf	9,0	;volatile
  1968  0153                     l1497:
  1969                           
  1970                           ;libreria_master.c: 110:     RE1 = 0;
  1971  0153  1089               	bcf	9,1	;volatile
  1972                           
  1973                           ;libreria_master.c: 111:     _delay((unsigned long)((10)*(8000000/4000000.0)));
  1974  0154  3006               	movlw	6
  1975  0155  00F0               	movwf	??_caracteres_LCD
  1976  0156                     u657:
  1977  0156  0BF0               	decfsz	??_caracteres_LCD,f
  1978  0157  2956               	goto	u657
  1979  0158  0000               	nop
  1980  0159                     l1499:
  1981                           
  1982                           ;libreria_master.c: 112:     RE2 = 1;
  1983  0159  1283               	bcf	3,5	;RP0=0, select bank0
  1984  015A  1303               	bcf	3,6	;RP1=0, select bank0
  1985  015B  1509               	bsf	9,2	;volatile
  1986                           
  1987                           ;libreria_master.c: 113:     _delay((unsigned long)((10)*(8000000/4000000.0)));
  1988  015C  3006               	movlw	6
  1989  015D  00F0               	movwf	??_caracteres_LCD
  1990  015E                     u667:
  1991  015E  0BF0               	decfsz	??_caracteres_LCD,f
  1992  015F  295E               	goto	u667
  1993  0160  0000               	nop
  1994  0161                     l1501:
  1995                           
  1996                           ;libreria_master.c: 114:     RE2 = 0;
  1997  0161  1283               	bcf	3,5	;RP0=0, select bank0
  1998  0162  1303               	bcf	3,6	;RP1=0, select bank0
  1999  0163  1109               	bcf	9,2	;volatile
  2000  0164                     l176:
  2001  0164  0008               	return
  2002  0165                     __end_of_caracteres_LCD:
  2003                           
  2004                           	psect	text4
  2005  01F8                     __ptext4:	
  2006 ;; *************** function _init_LCD *****************
  2007 ;; Defined at:
  2008 ;;		line 50 in file "libreria_master.c"
  2009 ;; Parameters:    Size  Location     Type
  2010 ;;		None
  2011 ;; Auto vars:     Size  Location     Type
  2012 ;;		None
  2013 ;; Return value:  Size  Location     Type
  2014 ;;                  1    wreg      void 
  2015 ;; Registers used:
  2016 ;;		wreg, status,2, status,0, pclath, cstack
  2017 ;; Tracked objects:
  2018 ;;		On entry : 0/0
  2019 ;;		On exit  : 0/0
  2020 ;;		Unchanged: 0/0
  2021 ;; Data sizes:     COMMON   BANK0   BANK1   BANK3   BANK2
  2022 ;;      Params:         0       0       0       0       0
  2023 ;;      Locals:         0       0       0       0       0
  2024 ;;      Temps:          2       0       0       0       0
  2025 ;;      Totals:         2       0       0       0       0
  2026 ;;Total ram usage:        2 bytes
  2027 ;; Hardware stack levels used:    1
  2028 ;; Hardware stack levels required when called:    1
  2029 ;; This function calls:
  2030 ;;		_comando_LCD
  2031 ;; This function is called by:
  2032 ;;		_main
  2033 ;; This function uses a non-reentrant model
  2034 ;;
  2035                           
  2036                           
  2037                           ;psect for function _init_LCD
  2038  01F8                     _init_LCD:
  2039  01F8                     l1595:	
  2040                           ;incstack = 0
  2041                           ; Regs used in _init_LCD: [wreg+status,2+status,0+pclath+cstack]
  2042                           
  2043                           
  2044                           ;libreria_master.c: 52:     PORTD = 0x00;
  2045  01F8  1283               	bcf	3,5	;RP0=0, select bank0
  2046  01F9  1303               	bcf	3,6	;RP1=0, select bank0
  2047  01FA  0188               	clrf	8	;volatile
  2048  01FB                     l1597:
  2049                           
  2050                           ;libreria_master.c: 53:     RE0 = 0;
  2051  01FB  1009               	bcf	9,0	;volatile
  2052  01FC                     l1599:
  2053                           
  2054                           ;libreria_master.c: 54:     RE1 = 0;
  2055  01FC  1089               	bcf	9,1	;volatile
  2056  01FD                     l1601:
  2057                           
  2058                           ;libreria_master.c: 56:     _delay((unsigned long)((20)*(8000000/4000.0)));
  2059  01FD  3034               	movlw	52
  2060  01FE  00F3               	movwf	??_init_LCD+1
  2061  01FF  30F1               	movlw	241
  2062  0200  00F2               	movwf	??_init_LCD
  2063  0201                     u677:
  2064  0201  0BF2               	decfsz	??_init_LCD,f
  2065  0202  2A01               	goto	u677
  2066  0203  0BF3               	decfsz	??_init_LCD+1,f
  2067  0204  2A01               	goto	u677
  2068  0205  2A06               	nop2
  2069  0206                     l1603:
  2070                           
  2071                           ;libreria_master.c: 57:     comando_LCD(0x30);
  2072  0206  3030               	movlw	48
  2073  0207  120A  118A  211C  120A  118A  	fcall	_comando_LCD
  2074  020C                     l1605:
  2075                           
  2076                           ;libreria_master.c: 59:     _delay((unsigned long)((5)*(8000000/4000.0)));
  2077  020C  300D               	movlw	13
  2078  020D  00F3               	movwf	??_init_LCD+1
  2079  020E  30FB               	movlw	251
  2080  020F  00F2               	movwf	??_init_LCD
  2081  0210                     u687:
  2082  0210  0BF2               	decfsz	??_init_LCD,f
  2083  0211  2A10               	goto	u687
  2084  0212  0BF3               	decfsz	??_init_LCD+1,f
  2085  0213  2A10               	goto	u687
  2086  0214  2A15               	nop2
  2087  0215                     l1607:
  2088                           
  2089                           ;libreria_master.c: 60:     comando_LCD(0x30);
  2090  0215  3030               	movlw	48
  2091  0216  120A  118A  211C  120A  118A  	fcall	_comando_LCD
  2092  021B                     l1609:
  2093                           
  2094                           ;libreria_master.c: 62:     _delay((unsigned long)((200)*(8000000/4000000.0)));
  2095  021B  3085               	movlw	133
  2096  021C  00F2               	movwf	??_init_LCD
  2097  021D                     u697:
  2098  021D  0BF2               	decfsz	??_init_LCD,f
  2099  021E  2A1D               	goto	u697
  2100  021F                     l1611:
  2101                           
  2102                           ;libreria_master.c: 63:     comando_LCD(0x30);
  2103  021F  3030               	movlw	48
  2104  0220  120A  118A  211C  120A  118A  	fcall	_comando_LCD
  2105  0225                     l1613:
  2106                           
  2107                           ;libreria_master.c: 65:     comando_LCD(0x38);
  2108  0225  3038               	movlw	56
  2109  0226  120A  118A  211C  120A  118A  	fcall	_comando_LCD
  2110  022B                     l1615:
  2111                           
  2112                           ;libreria_master.c: 66:     comando_LCD(0x0c);
  2113  022B  300C               	movlw	12
  2114  022C  120A  118A  211C  120A  118A  	fcall	_comando_LCD
  2115  0231                     l1617:
  2116                           
  2117                           ;libreria_master.c: 67:     comando_LCD(0x06);
  2118  0231  3006               	movlw	6
  2119  0232  120A  118A  211C  120A  118A  	fcall	_comando_LCD
  2120  0237                     l159:
  2121  0237  0008               	return
  2122  0238                     __end_of_init_LCD:
  2123                           
  2124                           	psect	text5
  2125  03A9                     __ptext5:	
  2126 ;; *************** function _decenas *****************
  2127 ;; Defined at:
  2128 ;;		line 160 in file "libreria_master.c"
  2129 ;; Parameters:    Size  Location     Type
  2130 ;;  cantidad        4    0[COMMON] unsigned long 
  2131 ;; Auto vars:     Size  Location     Type
  2132 ;;  cont            4    8[COMMON] unsigned long 
  2133 ;;  decenas         1   12[COMMON] unsigned char 
  2134 ;; Return value:  Size  Location     Type
  2135 ;;                  1    wreg      unsigned char 
  2136 ;; Registers used:
  2137 ;;		wreg, fsr0l, fsr0h, status,2, status,0
  2138 ;; Tracked objects:
  2139 ;;		On entry : 0/0
  2140 ;;		On exit  : 0/0
  2141 ;;		Unchanged: 0/0
  2142 ;; Data sizes:     COMMON   BANK0   BANK1   BANK3   BANK2
  2143 ;;      Params:         4       0       0       0       0
  2144 ;;      Locals:         5       0       0       0       0
  2145 ;;      Temps:          4       0       0       0       0
  2146 ;;      Totals:        13       0       0       0       0
  2147 ;;Total ram usage:       13 bytes
  2148 ;; Hardware stack levels used:    1
  2149 ;; This function calls:
  2150 ;;		Nothing
  2151 ;; This function is called by:
  2152 ;;		_main
  2153 ;; This function uses a non-reentrant model
  2154 ;;
  2155                           
  2156                           
  2157                           ;psect for function _decenas
  2158  03A9                     _decenas:
  2159  03A9                     l1687:	
  2160                           ;incstack = 0
  2161                           ; Regs used in _decenas: [wreg-fsr0h+status,2+status,0]
  2162                           
  2163                           
  2164                           ;libreria_master.c: 162:     char decenas = 0;
  2165  03A9  01FC               	clrf	decenas@decenas
  2166  03AA                     l1689:
  2167                           
  2168                           ;libreria_master.c: 163:     uint32_t cont = 0;
  2169  03AA  3000               	movlw	0
  2170  03AB  00FB               	movwf	decenas@cont+3
  2171  03AC  3000               	movlw	0
  2172  03AD  00FA               	movwf	decenas@cont+2
  2173  03AE  3000               	movlw	0
  2174  03AF  00F9               	movwf	decenas@cont+1
  2175  03B0  3000               	movlw	0
  2176  03B1  00F8               	movwf	decenas@cont
  2177                           
  2178                           ;libreria_master.c: 165:     while (cantidad >= 100) {
  2179  03B2  2BD5               	goto	l1693
  2180  03B3                     l1691:
  2181                           
  2182                           ;libreria_master.c: 166:         cantidad = cantidad - 100;
  2183  03B3  309C               	movlw	156
  2184  03B4  00F4               	movwf	??_decenas
  2185  03B5  30FF               	movlw	255
  2186  03B6  00F5               	movwf	??_decenas+1
  2187  03B7  30FF               	movlw	255
  2188  03B8  00F6               	movwf	??_decenas+2
  2189  03B9  30FF               	movlw	255
  2190  03BA  00F7               	movwf	??_decenas+3
  2191  03BB  0870               	movf	decenas@cantidad,w
  2192  03BC  07F4               	addwf	??_decenas,f
  2193  03BD  0871               	movf	decenas@cantidad+1,w
  2194  03BE  1803               	skipnc
  2195  03BF  0F71               	incfsz	decenas@cantidad+1,w
  2196  03C0  2BC2               	goto	u410
  2197  03C1  2BC3               	goto	u411
  2198  03C2                     u410:
  2199  03C2  07F5               	addwf	??_decenas+1,f
  2200  03C3                     u411:
  2201  03C3  0872               	movf	decenas@cantidad+2,w
  2202  03C4  1803               	skipnc
  2203  03C5  0F72               	incfsz	decenas@cantidad+2,w
  2204  03C6  2BC8               	goto	u412
  2205  03C7  2BC9               	goto	u413
  2206  03C8                     u412:
  2207  03C8  07F6               	addwf	??_decenas+2,f
  2208  03C9                     u413:
  2209  03C9  0873               	movf	decenas@cantidad+3,w
  2210  03CA  1803               	skipnc
  2211  03CB  0A73               	incf	decenas@cantidad+3,w
  2212  03CC  07F7               	addwf	??_decenas+3,f
  2213  03CD  0877               	movf	??_decenas+3,w
  2214  03CE  00F3               	movwf	decenas@cantidad+3
  2215  03CF  0876               	movf	??_decenas+2,w
  2216  03D0  00F2               	movwf	decenas@cantidad+2
  2217  03D1  0875               	movf	??_decenas+1,w
  2218  03D2  00F1               	movwf	decenas@cantidad+1
  2219  03D3  0874               	movf	??_decenas,w
  2220  03D4  00F0               	movwf	decenas@cantidad
  2221  03D5                     l1693:
  2222                           
  2223                           ;libreria_master.c: 165:     while (cantidad >= 100) {
  2224  03D5  0873               	movf	decenas@cantidad+3,w
  2225  03D6  1D03               	btfss	3,2
  2226  03D7  2BE5               	goto	u421
  2227  03D8  0872               	movf	decenas@cantidad+2,w
  2228  03D9  1D03               	btfss	3,2
  2229  03DA  2BE5               	goto	u421
  2230  03DB  0871               	movf	decenas@cantidad+1,w
  2231  03DC  1D03               	btfss	3,2
  2232  03DD  2BE5               	goto	u421
  2233  03DE  3064               	movlw	100
  2234  03DF  0270               	subwf	decenas@cantidad,w
  2235  03E0  1D03               	skipz
  2236  03E1  2BE2               	goto	u423
  2237  03E2                     u423:
  2238  03E2  1803               	btfsc	3,0
  2239  03E3  2BE5               	goto	u421
  2240  03E4  2BE6               	goto	u420
  2241  03E5                     u421:
  2242  03E5  2BB3               	goto	l1691
  2243  03E6                     u420:
  2244  03E6  2C17               	goto	l1697
  2245  03E7                     l1695:
  2246                           
  2247                           ;libreria_master.c: 170:         cantidad = cantidad -10;
  2248  03E7  30F6               	movlw	246
  2249  03E8  00F4               	movwf	??_decenas
  2250  03E9  30FF               	movlw	255
  2251  03EA  00F5               	movwf	??_decenas+1
  2252  03EB  30FF               	movlw	255
  2253  03EC  00F6               	movwf	??_decenas+2
  2254  03ED  30FF               	movlw	255
  2255  03EE  00F7               	movwf	??_decenas+3
  2256  03EF  0870               	movf	decenas@cantidad,w
  2257  03F0  07F4               	addwf	??_decenas,f
  2258  03F1  0871               	movf	decenas@cantidad+1,w
  2259  03F2  1803               	skipnc
  2260  03F3  0F71               	incfsz	decenas@cantidad+1,w
  2261  03F4  2BF6               	goto	u430
  2262  03F5  2BF7               	goto	u431
  2263  03F6                     u430:
  2264  03F6  07F5               	addwf	??_decenas+1,f
  2265  03F7                     u431:
  2266  03F7  0872               	movf	decenas@cantidad+2,w
  2267  03F8  1803               	skipnc
  2268  03F9  0F72               	incfsz	decenas@cantidad+2,w
  2269  03FA  2BFC               	goto	u432
  2270  03FB  2BFD               	goto	u433
  2271  03FC                     u432:
  2272  03FC  07F6               	addwf	??_decenas+2,f
  2273  03FD                     u433:
  2274  03FD  0873               	movf	decenas@cantidad+3,w
  2275  03FE  1803               	skipnc
  2276  03FF  0A73               	incf	decenas@cantidad+3,w
  2277  0400  07F7               	addwf	??_decenas+3,f
  2278  0401  0877               	movf	??_decenas+3,w
  2279  0402  00F3               	movwf	decenas@cantidad+3
  2280  0403  0876               	movf	??_decenas+2,w
  2281  0404  00F2               	movwf	decenas@cantidad+2
  2282  0405  0875               	movf	??_decenas+1,w
  2283  0406  00F1               	movwf	decenas@cantidad+1
  2284  0407  0874               	movf	??_decenas,w
  2285  0408  00F0               	movwf	decenas@cantidad
  2286                           
  2287                           ;libreria_master.c: 171:         cont++;
  2288  0409  3001               	movlw	1
  2289  040A  07F8               	addwf	decenas@cont,f
  2290  040B  3000               	movlw	0
  2291  040C  1803               	skipnc
  2292  040D  3001               	movlw	1
  2293  040E  07F9               	addwf	decenas@cont+1,f
  2294  040F  3000               	movlw	0
  2295  0410  1803               	skipnc
  2296  0411  3001               	movlw	1
  2297  0412  07FA               	addwf	decenas@cont+2,f
  2298  0413  3000               	movlw	0
  2299  0414  1803               	skipnc
  2300  0415  3001               	movlw	1
  2301  0416  07FB               	addwf	decenas@cont+3,f
  2302  0417                     l1697:
  2303                           
  2304                           ;libreria_master.c: 169:     while (cantidad >= 10) {
  2305  0417  0873               	movf	decenas@cantidad+3,w
  2306  0418  1D03               	btfss	3,2
  2307  0419  2C27               	goto	u441
  2308  041A  0872               	movf	decenas@cantidad+2,w
  2309  041B  1D03               	btfss	3,2
  2310  041C  2C27               	goto	u441
  2311  041D  0871               	movf	decenas@cantidad+1,w
  2312  041E  1D03               	btfss	3,2
  2313  041F  2C27               	goto	u441
  2314  0420  300A               	movlw	10
  2315  0421  0270               	subwf	decenas@cantidad,w
  2316  0422  1D03               	skipz
  2317  0423  2C24               	goto	u443
  2318  0424                     u443:
  2319  0424  1803               	btfsc	3,0
  2320  0425  2C27               	goto	u441
  2321  0426  2C28               	goto	u440
  2322  0427                     u441:
  2323  0427  2BE7               	goto	l1695
  2324  0428                     u440:
  2325  0428  2C5B               	goto	l1721
  2326  0429                     l1699:
  2327  0429  3030               	movlw	48
  2328  042A  00F4               	movwf	??_decenas
  2329  042B  0874               	movf	??_decenas,w
  2330  042C  00FC               	movwf	decenas@decenas
  2331                           
  2332                           ;libreria_master.c: 175:         break;
  2333  042D  2C8A               	goto	l1723
  2334  042E                     l1701:
  2335  042E  3031               	movlw	49
  2336  042F  00F4               	movwf	??_decenas
  2337  0430  0874               	movf	??_decenas,w
  2338  0431  00FC               	movwf	decenas@decenas
  2339                           
  2340                           ;libreria_master.c: 177:         break;
  2341  0432  2C8A               	goto	l1723
  2342  0433                     l1703:
  2343  0433  3032               	movlw	50
  2344  0434  00F4               	movwf	??_decenas
  2345  0435  0874               	movf	??_decenas,w
  2346  0436  00FC               	movwf	decenas@decenas
  2347                           
  2348                           ;libreria_master.c: 179:         break;
  2349  0437  2C8A               	goto	l1723
  2350  0438                     l1705:
  2351  0438  3033               	movlw	51
  2352  0439  00F4               	movwf	??_decenas
  2353  043A  0874               	movf	??_decenas,w
  2354  043B  00FC               	movwf	decenas@decenas
  2355                           
  2356                           ;libreria_master.c: 181:         break;
  2357  043C  2C8A               	goto	l1723
  2358  043D                     l1707:
  2359  043D  3034               	movlw	52
  2360  043E  00F4               	movwf	??_decenas
  2361  043F  0874               	movf	??_decenas,w
  2362  0440  00FC               	movwf	decenas@decenas
  2363                           
  2364                           ;libreria_master.c: 183:         break;
  2365  0441  2C8A               	goto	l1723
  2366  0442                     l1709:
  2367  0442  3035               	movlw	53
  2368  0443  00F4               	movwf	??_decenas
  2369  0444  0874               	movf	??_decenas,w
  2370  0445  00FC               	movwf	decenas@decenas
  2371                           
  2372                           ;libreria_master.c: 185:         break;
  2373  0446  2C8A               	goto	l1723
  2374  0447                     l1711:
  2375  0447  3036               	movlw	54
  2376  0448  00F4               	movwf	??_decenas
  2377  0449  0874               	movf	??_decenas,w
  2378  044A  00FC               	movwf	decenas@decenas
  2379                           
  2380                           ;libreria_master.c: 187:         break;
  2381  044B  2C8A               	goto	l1723
  2382  044C                     l1713:
  2383  044C  3037               	movlw	55
  2384  044D  00F4               	movwf	??_decenas
  2385  044E  0874               	movf	??_decenas,w
  2386  044F  00FC               	movwf	decenas@decenas
  2387                           
  2388                           ;libreria_master.c: 189:         break;
  2389  0450  2C8A               	goto	l1723
  2390  0451                     l1715:
  2391  0451  3038               	movlw	56
  2392  0452  00F4               	movwf	??_decenas
  2393  0453  0874               	movf	??_decenas,w
  2394  0454  00FC               	movwf	decenas@decenas
  2395                           
  2396                           ;libreria_master.c: 191:         break;
  2397  0455  2C8A               	goto	l1723
  2398  0456                     l1717:
  2399  0456  3039               	movlw	57
  2400  0457  00F4               	movwf	??_decenas
  2401  0458  0874               	movf	??_decenas,w
  2402  0459  00FC               	movwf	decenas@decenas
  2403                           
  2404                           ;libreria_master.c: 193:         break;
  2405  045A  2C8A               	goto	l1723
  2406  045B                     l1721:
  2407                           
  2408                           ; Switch on 2 bytes has been partitioned into a top level switch of size 1, and 2 sub-sw
      +                          itches
  2409                           ; Switch size 1, requested type "simple"
  2410                           ; Number of cases is 1, Range of values is 0 to 0
  2411                           ; switch strategies available:
  2412                           ; Name         Instructions Cycles
  2413                           ; simple_byte            4     3 (average)
  2414                           ; direct_byte           11     8 (fixed)
  2415                           ; jumptable            260     6 (fixed)
  2416                           ;	Chosen strategy is simple_byte
  2417  045B  087B               	movf	decenas@cont+3,w
  2418  045C  3A00               	xorlw	0	; case 0
  2419  045D  1903               	skipnz
  2420  045E  2C85               	goto	l2119
  2421  045F  2C8A               	goto	l1723
  2422  0460                     l2117:
  2423                           
  2424                           ; Switch on 2 bytes has been partitioned into a top level switch of size 1, and 1 sub-sw
      +                          itches
  2425                           ; Switch size 1, requested type "simple"
  2426                           ; Number of cases is 1, Range of values is 0 to 0
  2427                           ; switch strategies available:
  2428                           ; Name         Instructions Cycles
  2429                           ; simple_byte            4     3 (average)
  2430                           ; direct_byte           11     8 (fixed)
  2431                           ; jumptable            260     6 (fixed)
  2432                           ;	Chosen strategy is simple_byte
  2433  0460  0879               	movf	decenas@cont+1,w
  2434  0461  3A00               	xorlw	0	; case 0
  2435  0462  1903               	skipnz
  2436  0463  2C65               	goto	l2121
  2437  0464  2C8A               	goto	l1723
  2438  0465                     l2121:
  2439                           
  2440                           ; Switch size 1, requested type "simple"
  2441                           ; Number of cases is 10, Range of values is 0 to 9
  2442                           ; switch strategies available:
  2443                           ; Name         Instructions Cycles
  2444                           ; simple_byte           31    16 (average)
  2445                           ; direct_byte           38     8 (fixed)
  2446                           ; jumptable            260     6 (fixed)
  2447                           ;	Chosen strategy is simple_byte
  2448  0465  0878               	movf	decenas@cont,w
  2449  0466  3A00               	xorlw	0	; case 0
  2450  0467  1903               	skipnz
  2451  0468  2C29               	goto	l1699
  2452  0469  3A01               	xorlw	1	; case 1
  2453  046A  1903               	skipnz
  2454  046B  2C2E               	goto	l1701
  2455  046C  3A03               	xorlw	3	; case 2
  2456  046D  1903               	skipnz
  2457  046E  2C33               	goto	l1703
  2458  046F  3A01               	xorlw	1	; case 3
  2459  0470  1903               	skipnz
  2460  0471  2C38               	goto	l1705
  2461  0472  3A07               	xorlw	7	; case 4
  2462  0473  1903               	skipnz
  2463  0474  2C3D               	goto	l1707
  2464  0475  3A01               	xorlw	1	; case 5
  2465  0476  1903               	skipnz
  2466  0477  2C42               	goto	l1709
  2467  0478  3A03               	xorlw	3	; case 6
  2468  0479  1903               	skipnz
  2469  047A  2C47               	goto	l1711
  2470  047B  3A01               	xorlw	1	; case 7
  2471  047C  1903               	skipnz
  2472  047D  2C4C               	goto	l1713
  2473  047E  3A0F               	xorlw	15	; case 8
  2474  047F  1903               	skipnz
  2475  0480  2C51               	goto	l1715
  2476  0481  3A01               	xorlw	1	; case 9
  2477  0482  1903               	skipnz
  2478  0483  2C56               	goto	l1717
  2479  0484  2C8A               	goto	l1723
  2480  0485                     l2119:
  2481                           
  2482                           ; Switch size 1, requested type "simple"
  2483                           ; Number of cases is 1, Range of values is 0 to 0
  2484                           ; switch strategies available:
  2485                           ; Name         Instructions Cycles
  2486                           ; simple_byte            4     3 (average)
  2487                           ; direct_byte           11     8 (fixed)
  2488                           ; jumptable            260     6 (fixed)
  2489                           ;	Chosen strategy is simple_byte
  2490  0485  087A               	movf	decenas@cont+2,w
  2491  0486  3A00               	xorlw	0	; case 0
  2492  0487  1903               	skipnz
  2493  0488  2C60               	goto	l2117
  2494  0489  2C8A               	goto	l1723
  2495  048A                     l1723:
  2496                           
  2497                           ;libreria_master.c: 195:     return (decenas) ;
  2498  048A  087C               	movf	decenas@decenas,w
  2499  048B                     l215:
  2500  048B  0008               	return
  2501  048C                     __end_of_decenas:
  2502                           
  2503                           	psect	text6
  2504  0238                     __ptext6:	
  2505 ;; *************** function _conf_OSCCON *****************
  2506 ;; Defined at:
  2507 ;;		line 16 in file "libreria_master.c"
  2508 ;; Parameters:    Size  Location     Type
  2509 ;;  frecuencia      1    wreg     unsigned char 
  2510 ;; Auto vars:     Size  Location     Type
  2511 ;;  frecuencia      1    2[COMMON] unsigned char 
  2512 ;; Return value:  Size  Location     Type
  2513 ;;                  1    wreg      void 
  2514 ;; Registers used:
  2515 ;;		wreg, fsr0l, fsr0h, status,2, status,0
  2516 ;; Tracked objects:
  2517 ;;		On entry : 0/0
  2518 ;;		On exit  : 0/0
  2519 ;;		Unchanged: 0/0
  2520 ;; Data sizes:     COMMON   BANK0   BANK1   BANK3   BANK2
  2521 ;;      Params:         0       0       0       0       0
  2522 ;;      Locals:         1       0       0       0       0
  2523 ;;      Temps:          2       0       0       0       0
  2524 ;;      Totals:         3       0       0       0       0
  2525 ;;Total ram usage:        3 bytes
  2526 ;; Hardware stack levels used:    1
  2527 ;; This function calls:
  2528 ;;		Nothing
  2529 ;; This function is called by:
  2530 ;;		_main
  2531 ;; This function uses a non-reentrant model
  2532 ;;
  2533                           
  2534                           
  2535                           ;psect for function _conf_OSCCON
  2536  0238                     _conf_OSCCON:
  2537                           
  2538                           ;incstack = 0
  2539                           ; Regs used in _conf_OSCCON: [wreg-fsr0h+status,2+status,0]
  2540                           ;conf_OSCCON@frecuencia stored from wreg
  2541  0238  00F2               	movwf	conf_OSCCON@frecuencia
  2542  0239                     l1569:
  2543                           
  2544                           ;libreria_master.c: 18:     switch (frecuencia) {
  2545  0239  2A6E               	goto	l1589
  2546  023A                     l1571:
  2547                           
  2548                           ;libreria_master.c: 20:             OSCCONbits.IRCF = 0b000;
  2549  023A  308F               	movlw	-113
  2550  023B  1683               	bsf	3,5	;RP0=1, select bank1
  2551  023C  1303               	bcf	3,6	;RP1=0, select bank1
  2552  023D  058F               	andwf	15,f	;volatile
  2553                           
  2554                           ;libreria_master.c: 21:             break;
  2555  023E  2A90               	goto	l148
  2556  023F                     l1573:
  2557                           
  2558                           ;libreria_master.c: 23:             OSCCONbits.IRCF = 0b001;
  2559  023F  1683               	bsf	3,5	;RP0=1, select bank1
  2560  0240  1303               	bcf	3,6	;RP1=0, select bank1
  2561  0241  080F               	movf	15,w	;volatile
  2562  0242  398F               	andlw	-113
  2563  0243  3810               	iorlw	16
  2564  0244  008F               	movwf	15	;volatile
  2565                           
  2566                           ;libreria_master.c: 24:             break;
  2567  0245  2A90               	goto	l148
  2568  0246                     l1575:
  2569                           
  2570                           ;libreria_master.c: 26:             OSCCONbits.IRCF = 0b010;
  2571  0246  1683               	bsf	3,5	;RP0=1, select bank1
  2572  0247  1303               	bcf	3,6	;RP1=0, select bank1
  2573  0248  080F               	movf	15,w	;volatile
  2574  0249  398F               	andlw	-113
  2575  024A  3820               	iorlw	32
  2576  024B  008F               	movwf	15	;volatile
  2577                           
  2578                           ;libreria_master.c: 27:             break;
  2579  024C  2A90               	goto	l148
  2580  024D                     l1577:
  2581                           
  2582                           ;libreria_master.c: 29:             OSCCONbits.IRCF = 0b011;
  2583  024D  1683               	bsf	3,5	;RP0=1, select bank1
  2584  024E  1303               	bcf	3,6	;RP1=0, select bank1
  2585  024F  080F               	movf	15,w	;volatile
  2586  0250  398F               	andlw	-113
  2587  0251  3830               	iorlw	48
  2588  0252  008F               	movwf	15	;volatile
  2589                           
  2590                           ;libreria_master.c: 30:             break;
  2591  0253  2A90               	goto	l148
  2592  0254                     l1579:
  2593                           
  2594                           ;libreria_master.c: 32:             OSCCONbits.IRCF = 0b100;
  2595  0254  1683               	bsf	3,5	;RP0=1, select bank1
  2596  0255  1303               	bcf	3,6	;RP1=0, select bank1
  2597  0256  080F               	movf	15,w	;volatile
  2598  0257  398F               	andlw	-113
  2599  0258  3840               	iorlw	64
  2600  0259  008F               	movwf	15	;volatile
  2601                           
  2602                           ;libreria_master.c: 33:             break;
  2603  025A  2A90               	goto	l148
  2604  025B                     l1581:
  2605                           
  2606                           ;libreria_master.c: 35:             OSCCONbits.IRCF = 0b101;
  2607  025B  1683               	bsf	3,5	;RP0=1, select bank1
  2608  025C  1303               	bcf	3,6	;RP1=0, select bank1
  2609  025D  080F               	movf	15,w	;volatile
  2610  025E  398F               	andlw	-113
  2611  025F  3850               	iorlw	80
  2612  0260  008F               	movwf	15	;volatile
  2613                           
  2614                           ;libreria_master.c: 36:             break;
  2615  0261  2A90               	goto	l148
  2616  0262                     l1583:
  2617                           
  2618                           ;libreria_master.c: 38:             OSCCONbits.IRCF = 0b110;
  2619  0262  1683               	bsf	3,5	;RP0=1, select bank1
  2620  0263  1303               	bcf	3,6	;RP1=0, select bank1
  2621  0264  080F               	movf	15,w	;volatile
  2622  0265  398F               	andlw	-113
  2623  0266  3860               	iorlw	96
  2624  0267  008F               	movwf	15	;volatile
  2625                           
  2626                           ;libreria_master.c: 39:             break;
  2627  0268  2A90               	goto	l148
  2628  0269                     l1585:
  2629                           
  2630                           ;libreria_master.c: 41:             OSCCONbits.IRCF = 0b111;
  2631  0269  3070               	movlw	112
  2632  026A  1683               	bsf	3,5	;RP0=1, select bank1
  2633  026B  1303               	bcf	3,6	;RP1=0, select bank1
  2634  026C  048F               	iorwf	15,f	;volatile
  2635                           
  2636                           ;libreria_master.c: 42:             break;
  2637  026D  2A90               	goto	l148
  2638  026E                     l1589:
  2639  026E  0872               	movf	conf_OSCCON@frecuencia,w
  2640  026F  00F0               	movwf	??_conf_OSCCON
  2641  0270  01F1               	clrf	??_conf_OSCCON+1
  2642                           
  2643                           ; Switch on 2 bytes has been partitioned into a top level switch of size 1, and 1 sub-sw
      +                          itches
  2644                           ; Switch size 1, requested type "simple"
  2645                           ; Number of cases is 1, Range of values is 0 to 0
  2646                           ; switch strategies available:
  2647                           ; Name         Instructions Cycles
  2648                           ; simple_byte            4     3 (average)
  2649                           ; direct_byte           11     8 (fixed)
  2650                           ; jumptable            260     6 (fixed)
  2651                           ;	Chosen strategy is simple_byte
  2652  0271  0871               	movf	??_conf_OSCCON+1,w
  2653  0272  3A00               	xorlw	0	; case 0
  2654  0273  1903               	skipnz
  2655  0274  2A76               	goto	l2123
  2656  0275  2A90               	goto	l148
  2657  0276                     l2123:
  2658                           
  2659                           ; Switch size 1, requested type "simple"
  2660                           ; Number of cases is 8, Range of values is 1 to 8
  2661                           ; switch strategies available:
  2662                           ; Name         Instructions Cycles
  2663                           ; simple_byte           25    13 (average)
  2664                           ; direct_byte           35    11 (fixed)
  2665                           ; jumptable            263     9 (fixed)
  2666                           ;	Chosen strategy is simple_byte
  2667  0276  0870               	movf	??_conf_OSCCON,w
  2668  0277  3A01               	xorlw	1	; case 1
  2669  0278  1903               	skipnz
  2670  0279  2A3A               	goto	l1571
  2671  027A  3A03               	xorlw	3	; case 2
  2672  027B  1903               	skipnz
  2673  027C  2A3F               	goto	l1573
  2674  027D  3A01               	xorlw	1	; case 3
  2675  027E  1903               	skipnz
  2676  027F  2A46               	goto	l1575
  2677  0280  3A07               	xorlw	7	; case 4
  2678  0281  1903               	skipnz
  2679  0282  2A4D               	goto	l1577
  2680  0283  3A01               	xorlw	1	; case 5
  2681  0284  1903               	skipnz
  2682  0285  2A54               	goto	l1579
  2683  0286  3A03               	xorlw	3	; case 6
  2684  0287  1903               	skipnz
  2685  0288  2A5B               	goto	l1581
  2686  0289  3A01               	xorlw	1	; case 7
  2687  028A  1903               	skipnz
  2688  028B  2A62               	goto	l1583
  2689  028C  3A0F               	xorlw	15	; case 8
  2690  028D  1903               	skipnz
  2691  028E  2A69               	goto	l1585
  2692  028F  2A90               	goto	l148
  2693  0290                     l148:
  2694                           
  2695                           ;libreria_master.c: 44:     OSCCONbits.SCS = 1;
  2696  0290  1683               	bsf	3,5	;RP0=1, select bank1
  2697  0291  1303               	bcf	3,6	;RP1=0, select bank1
  2698  0292  140F               	bsf	15,0	;volatile
  2699  0293                     l156:	
  2700                           ;libreria_master.c: 45:     return;
  2701                           
  2702  0293  0008               	return
  2703  0294                     __end_of_conf_OSCCON:
  2704                           
  2705                           	psect	text7
  2706  0132                     __ptext7:	
  2707 ;; *************** function _centrado_LCD *****************
  2708 ;; Defined at:
  2709 ;;		line 85 in file "libreria_master.c"
  2710 ;; Parameters:    Size  Location     Type
  2711 ;;  x               1    wreg     unsigned char 
  2712 ;;  y               1    2[COMMON] unsigned char 
  2713 ;; Auto vars:     Size  Location     Type
  2714 ;;  x               1    3[COMMON] unsigned char 
  2715 ;; Return value:  Size  Location     Type
  2716 ;;                  1    wreg      void 
  2717 ;; Registers used:
  2718 ;;		wreg, status,2, status,0, pclath, cstack
  2719 ;; Tracked objects:
  2720 ;;		On entry : 0/0
  2721 ;;		On exit  : 0/0
  2722 ;;		Unchanged: 0/0
  2723 ;; Data sizes:     COMMON   BANK0   BANK1   BANK3   BANK2
  2724 ;;      Params:         1       0       0       0       0
  2725 ;;      Locals:         1       0       0       0       0
  2726 ;;      Temps:          0       0       0       0       0
  2727 ;;      Totals:         2       0       0       0       0
  2728 ;;Total ram usage:        2 bytes
  2729 ;; Hardware stack levels used:    1
  2730 ;; Hardware stack levels required when called:    1
  2731 ;; This function calls:
  2732 ;;		_comando_LCD
  2733 ;; This function is called by:
  2734 ;;		_main
  2735 ;; This function uses a non-reentrant model
  2736 ;;
  2737                           
  2738                           
  2739                           ;psect for function _centrado_LCD
  2740  0132                     _centrado_LCD:
  2741                           
  2742                           ;incstack = 0
  2743                           ; Regs used in _centrado_LCD: [wreg+status,2+status,0+pclath+cstack]
  2744                           ;centrado_LCD@x stored from wreg
  2745  0132  00F3               	movwf	centrado_LCD@x
  2746  0133                     l1621:
  2747                           
  2748                           ;libreria_master.c: 86:     if(x>0){
  2749  0133  0873               	movf	centrado_LCD@x,w
  2750  0134  1903               	btfsc	3,2
  2751  0135  2937               	goto	u371
  2752  0136  2938               	goto	u370
  2753  0137                     u371:
  2754  0137  2940               	goto	l1625
  2755  0138                     u370:
  2756  0138                     l1623:
  2757                           
  2758                           ;libreria_master.c: 87:         comando_LCD(0xC0 + y);
  2759  0138  0872               	movf	centrado_LCD@y,w
  2760  0139  3EC0               	addlw	192
  2761  013A  120A  118A  211C  120A  118A  	fcall	_comando_LCD
  2762                           
  2763                           ;libreria_master.c: 88:     }
  2764  013F  2947               	goto	l167
  2765  0140                     l1625:
  2766                           
  2767                           ;libreria_master.c: 90:         comando_LCD(0x80 + y);
  2768  0140  0872               	movf	centrado_LCD@y,w
  2769  0141  3E80               	addlw	128
  2770  0142  120A  118A  211C  120A  118A  	fcall	_comando_LCD
  2771  0147                     l167:
  2772  0147  0008               	return
  2773  0148                     __end_of_centrado_LCD:
  2774                           
  2775                           	psect	text8
  2776  011C                     __ptext8:	
  2777 ;; *************** function _comando_LCD *****************
  2778 ;; Defined at:
  2779 ;;		line 72 in file "libreria_master.c"
  2780 ;; Parameters:    Size  Location     Type
  2781 ;;  dato            1    wreg     unsigned char 
  2782 ;; Auto vars:     Size  Location     Type
  2783 ;;  dato            1    1[COMMON] unsigned char 
  2784 ;; Return value:  Size  Location     Type
  2785 ;;                  1    wreg      void 
  2786 ;; Registers used:
  2787 ;;		wreg
  2788 ;; Tracked objects:
  2789 ;;		On entry : 0/0
  2790 ;;		On exit  : 0/0
  2791 ;;		Unchanged: 0/0
  2792 ;; Data sizes:     COMMON   BANK0   BANK1   BANK3   BANK2
  2793 ;;      Params:         0       0       0       0       0
  2794 ;;      Locals:         1       0       0       0       0
  2795 ;;      Temps:          1       0       0       0       0
  2796 ;;      Totals:         2       0       0       0       0
  2797 ;;Total ram usage:        2 bytes
  2798 ;; Hardware stack levels used:    1
  2799 ;; This function calls:
  2800 ;;		Nothing
  2801 ;; This function is called by:
  2802 ;;		_init_LCD
  2803 ;;		_centrado_LCD
  2804 ;; This function uses a non-reentrant model
  2805 ;;
  2806                           
  2807                           
  2808                           ;psect for function _comando_LCD
  2809  011C                     _comando_LCD:
  2810                           
  2811                           ;incstack = 0
  2812                           ; Regs used in _comando_LCD: [wreg]
  2813                           ;comando_LCD@dato stored from wreg
  2814  011C  00F1               	movwf	comando_LCD@dato
  2815  011D                     l1481:
  2816                           
  2817                           ;libreria_master.c: 73:     PORTD = dato;
  2818  011D  0871               	movf	comando_LCD@dato,w
  2819  011E  1283               	bcf	3,5	;RP0=0, select bank0
  2820  011F  1303               	bcf	3,6	;RP1=0, select bank0
  2821  0120  0088               	movwf	8	;volatile
  2822  0121                     l1483:
  2823                           
  2824                           ;libreria_master.c: 74:     RE0 = 0;
  2825  0121  1009               	bcf	9,0	;volatile
  2826  0122                     l1485:
  2827                           
  2828                           ;libreria_master.c: 75:     RE1 = 0;
  2829  0122  1089               	bcf	9,1	;volatile
  2830  0123                     l1487:
  2831                           
  2832                           ;libreria_master.c: 77:     RE2 = 1;
  2833  0123  1509               	bsf	9,2	;volatile
  2834                           
  2835                           ;libreria_master.c: 78:     _delay((unsigned long)((40)*(8000000/4000000.0)));
  2836  0124  301A               	movlw	26
  2837  0125  00F0               	movwf	??_comando_LCD
  2838  0126                     u707:
  2839  0126  0BF0               	decfsz	??_comando_LCD,f
  2840  0127  2926               	goto	u707
  2841  0128  0000               	nop
  2842  0129                     l1489:
  2843                           
  2844                           ;libreria_master.c: 79:     RE2 = 0;
  2845  0129  1283               	bcf	3,5	;RP0=0, select bank0
  2846  012A  1303               	bcf	3,6	;RP1=0, select bank0
  2847  012B  1109               	bcf	9,2	;volatile
  2848                           
  2849                           ;libreria_master.c: 80:     _delay((unsigned long)((40)*(8000000/4000000.0)));
  2850  012C  301A               	movlw	26
  2851  012D  00F0               	movwf	??_comando_LCD
  2852  012E                     u717:
  2853  012E  0BF0               	decfsz	??_comando_LCD,f
  2854  012F  292E               	goto	u717
  2855  0130  0000               	nop
  2856  0131                     l162:
  2857  0131  0008               	return
  2858  0132                     __end_of_comando_LCD:
  2859                           
  2860                           	psect	text9
  2861  02FA                     __ptext9:	
  2862 ;; *************** function _centenas *****************
  2863 ;; Defined at:
  2864 ;;		line 122 in file "libreria_master.c"
  2865 ;; Parameters:    Size  Location     Type
  2866 ;;  cantidad        4    0[COMMON] unsigned long 
  2867 ;; Auto vars:     Size  Location     Type
  2868 ;;  cont            4    8[COMMON] unsigned long 
  2869 ;;  centenas        1   12[COMMON] unsigned char 
  2870 ;; Return value:  Size  Location     Type
  2871 ;;                  1    wreg      unsigned char 
  2872 ;; Registers used:
  2873 ;;		wreg, fsr0l, fsr0h, status,2, status,0
  2874 ;; Tracked objects:
  2875 ;;		On entry : 0/0
  2876 ;;		On exit  : 0/0
  2877 ;;		Unchanged: 0/0
  2878 ;; Data sizes:     COMMON   BANK0   BANK1   BANK3   BANK2
  2879 ;;      Params:         4       0       0       0       0
  2880 ;;      Locals:         5       0       0       0       0
  2881 ;;      Temps:          4       0       0       0       0
  2882 ;;      Totals:        13       0       0       0       0
  2883 ;;Total ram usage:       13 bytes
  2884 ;; Hardware stack levels used:    1
  2885 ;; This function calls:
  2886 ;;		Nothing
  2887 ;; This function is called by:
  2888 ;;		_main
  2889 ;; This function uses a non-reentrant model
  2890 ;;
  2891                           
  2892                           
  2893                           ;psect for function _centenas
  2894  02FA                     _centenas:
  2895  02FA                     l1639:	
  2896                           ;incstack = 0
  2897                           ; Regs used in _centenas: [wreg-fsr0h+status,2+status,0]
  2898                           
  2899                           
  2900                           ;libreria_master.c: 124:     char centenas = 0;
  2901  02FA  01FC               	clrf	centenas@centenas
  2902  02FB                     l1641:
  2903                           
  2904                           ;libreria_master.c: 125:     uint32_t cont = 0;
  2905  02FB  3000               	movlw	0
  2906  02FC  00FB               	movwf	centenas@cont+3
  2907  02FD  3000               	movlw	0
  2908  02FE  00FA               	movwf	centenas@cont+2
  2909  02FF  3000               	movlw	0
  2910  0300  00F9               	movwf	centenas@cont+1
  2911  0301  3000               	movlw	0
  2912  0302  00F8               	movwf	centenas@cont
  2913                           
  2914                           ;libreria_master.c: 127:     while (cantidad >= 100) {
  2915  0303  2B34               	goto	l1645
  2916  0304                     l1643:
  2917                           
  2918                           ;libreria_master.c: 128:         cantidad = cantidad - 100;
  2919  0304  309C               	movlw	156
  2920  0305  00F4               	movwf	??_centenas
  2921  0306  30FF               	movlw	255
  2922  0307  00F5               	movwf	??_centenas+1
  2923  0308  30FF               	movlw	255
  2924  0309  00F6               	movwf	??_centenas+2
  2925  030A  30FF               	movlw	255
  2926  030B  00F7               	movwf	??_centenas+3
  2927  030C  0870               	movf	centenas@cantidad,w
  2928  030D  07F4               	addwf	??_centenas,f
  2929  030E  0871               	movf	centenas@cantidad+1,w
  2930  030F  1803               	skipnc
  2931  0310  0F71               	incfsz	centenas@cantidad+1,w
  2932  0311  2B13               	goto	u390
  2933  0312  2B14               	goto	u391
  2934  0313                     u390:
  2935  0313  07F5               	addwf	??_centenas+1,f
  2936  0314                     u391:
  2937  0314  0872               	movf	centenas@cantidad+2,w
  2938  0315  1803               	skipnc
  2939  0316  0F72               	incfsz	centenas@cantidad+2,w
  2940  0317  2B19               	goto	u392
  2941  0318  2B1A               	goto	u393
  2942  0319                     u392:
  2943  0319  07F6               	addwf	??_centenas+2,f
  2944  031A                     u393:
  2945  031A  0873               	movf	centenas@cantidad+3,w
  2946  031B  1803               	skipnc
  2947  031C  0A73               	incf	centenas@cantidad+3,w
  2948  031D  07F7               	addwf	??_centenas+3,f
  2949  031E  0877               	movf	??_centenas+3,w
  2950  031F  00F3               	movwf	centenas@cantidad+3
  2951  0320  0876               	movf	??_centenas+2,w
  2952  0321  00F2               	movwf	centenas@cantidad+2
  2953  0322  0875               	movf	??_centenas+1,w
  2954  0323  00F1               	movwf	centenas@cantidad+1
  2955  0324  0874               	movf	??_centenas,w
  2956  0325  00F0               	movwf	centenas@cantidad
  2957                           
  2958                           ;libreria_master.c: 129:         cont++;
  2959  0326  3001               	movlw	1
  2960  0327  07F8               	addwf	centenas@cont,f
  2961  0328  3000               	movlw	0
  2962  0329  1803               	skipnc
  2963  032A  3001               	movlw	1
  2964  032B  07F9               	addwf	centenas@cont+1,f
  2965  032C  3000               	movlw	0
  2966  032D  1803               	skipnc
  2967  032E  3001               	movlw	1
  2968  032F  07FA               	addwf	centenas@cont+2,f
  2969  0330  3000               	movlw	0
  2970  0331  1803               	skipnc
  2971  0332  3001               	movlw	1
  2972  0333  07FB               	addwf	centenas@cont+3,f
  2973  0334                     l1645:
  2974                           
  2975                           ;libreria_master.c: 127:     while (cantidad >= 100) {
  2976  0334  0873               	movf	centenas@cantidad+3,w
  2977  0335  1D03               	btfss	3,2
  2978  0336  2B44               	goto	u401
  2979  0337  0872               	movf	centenas@cantidad+2,w
  2980  0338  1D03               	btfss	3,2
  2981  0339  2B44               	goto	u401
  2982  033A  0871               	movf	centenas@cantidad+1,w
  2983  033B  1D03               	btfss	3,2
  2984  033C  2B44               	goto	u401
  2985  033D  3064               	movlw	100
  2986  033E  0270               	subwf	centenas@cantidad,w
  2987  033F  1D03               	skipz
  2988  0340  2B41               	goto	u403
  2989  0341                     u403:
  2990  0341  1803               	btfsc	3,0
  2991  0342  2B44               	goto	u401
  2992  0343  2B45               	goto	u400
  2993  0344                     u401:
  2994  0344  2B04               	goto	l1643
  2995  0345                     u400:
  2996  0345  2B78               	goto	l1669
  2997  0346                     l1647:
  2998  0346  3030               	movlw	48
  2999  0347  00F4               	movwf	??_centenas
  3000  0348  0874               	movf	??_centenas,w
  3001  0349  00FC               	movwf	centenas@centenas
  3002                           
  3003                           ;libreria_master.c: 134:         break;
  3004  034A  2BA7               	goto	l1671
  3005  034B                     l1649:
  3006  034B  3031               	movlw	49
  3007  034C  00F4               	movwf	??_centenas
  3008  034D  0874               	movf	??_centenas,w
  3009  034E  00FC               	movwf	centenas@centenas
  3010                           
  3011                           ;libreria_master.c: 136:         break;
  3012  034F  2BA7               	goto	l1671
  3013  0350                     l1651:
  3014  0350  3032               	movlw	50
  3015  0351  00F4               	movwf	??_centenas
  3016  0352  0874               	movf	??_centenas,w
  3017  0353  00FC               	movwf	centenas@centenas
  3018                           
  3019                           ;libreria_master.c: 138:         break;
  3020  0354  2BA7               	goto	l1671
  3021  0355                     l1653:
  3022  0355  3033               	movlw	51
  3023  0356  00F4               	movwf	??_centenas
  3024  0357  0874               	movf	??_centenas,w
  3025  0358  00FC               	movwf	centenas@centenas
  3026                           
  3027                           ;libreria_master.c: 140:         break;
  3028  0359  2BA7               	goto	l1671
  3029  035A                     l1655:
  3030  035A  3034               	movlw	52
  3031  035B  00F4               	movwf	??_centenas
  3032  035C  0874               	movf	??_centenas,w
  3033  035D  00FC               	movwf	centenas@centenas
  3034                           
  3035                           ;libreria_master.c: 142:         break;
  3036  035E  2BA7               	goto	l1671
  3037  035F                     l1657:
  3038  035F  3035               	movlw	53
  3039  0360  00F4               	movwf	??_centenas
  3040  0361  0874               	movf	??_centenas,w
  3041  0362  00FC               	movwf	centenas@centenas
  3042                           
  3043                           ;libreria_master.c: 144:         break;
  3044  0363  2BA7               	goto	l1671
  3045  0364                     l1659:
  3046  0364  3036               	movlw	54
  3047  0365  00F4               	movwf	??_centenas
  3048  0366  0874               	movf	??_centenas,w
  3049  0367  00FC               	movwf	centenas@centenas
  3050                           
  3051                           ;libreria_master.c: 146:         break;
  3052  0368  2BA7               	goto	l1671
  3053  0369                     l1661:
  3054  0369  3037               	movlw	55
  3055  036A  00F4               	movwf	??_centenas
  3056  036B  0874               	movf	??_centenas,w
  3057  036C  00FC               	movwf	centenas@centenas
  3058                           
  3059                           ;libreria_master.c: 148:         break;
  3060  036D  2BA7               	goto	l1671
  3061  036E                     l1663:
  3062  036E  3038               	movlw	56
  3063  036F  00F4               	movwf	??_centenas
  3064  0370  0874               	movf	??_centenas,w
  3065  0371  00FC               	movwf	centenas@centenas
  3066                           
  3067                           ;libreria_master.c: 150:         break;
  3068  0372  2BA7               	goto	l1671
  3069  0373                     l1665:
  3070  0373  3039               	movlw	57
  3071  0374  00F4               	movwf	??_centenas
  3072  0375  0874               	movf	??_centenas,w
  3073  0376  00FC               	movwf	centenas@centenas
  3074                           
  3075                           ;libreria_master.c: 152:         break;
  3076  0377  2BA7               	goto	l1671
  3077  0378                     l1669:
  3078                           
  3079                           ; Switch on 2 bytes has been partitioned into a top level switch of size 1, and 2 sub-sw
      +                          itches
  3080                           ; Switch size 1, requested type "simple"
  3081                           ; Number of cases is 1, Range of values is 0 to 0
  3082                           ; switch strategies available:
  3083                           ; Name         Instructions Cycles
  3084                           ; simple_byte            4     3 (average)
  3085                           ; direct_byte           11     8 (fixed)
  3086                           ; jumptable            260     6 (fixed)
  3087                           ;	Chosen strategy is simple_byte
  3088  0378  087B               	movf	centenas@cont+3,w
  3089  0379  3A00               	xorlw	0	; case 0
  3090  037A  1903               	skipnz
  3091  037B  2BA2               	goto	l2127
  3092  037C  2BA7               	goto	l1671
  3093  037D                     l2125:
  3094                           
  3095                           ; Switch on 2 bytes has been partitioned into a top level switch of size 1, and 1 sub-sw
      +                          itches
  3096                           ; Switch size 1, requested type "simple"
  3097                           ; Number of cases is 1, Range of values is 0 to 0
  3098                           ; switch strategies available:
  3099                           ; Name         Instructions Cycles
  3100                           ; simple_byte            4     3 (average)
  3101                           ; direct_byte           11     8 (fixed)
  3102                           ; jumptable            260     6 (fixed)
  3103                           ;	Chosen strategy is simple_byte
  3104  037D  0879               	movf	centenas@cont+1,w
  3105  037E  3A00               	xorlw	0	; case 0
  3106  037F  1903               	skipnz
  3107  0380  2B82               	goto	l2129
  3108  0381  2BA7               	goto	l1671
  3109  0382                     l2129:
  3110                           
  3111                           ; Switch size 1, requested type "simple"
  3112                           ; Number of cases is 10, Range of values is 0 to 9
  3113                           ; switch strategies available:
  3114                           ; Name         Instructions Cycles
  3115                           ; simple_byte           31    16 (average)
  3116                           ; direct_byte           38     8 (fixed)
  3117                           ; jumptable            260     6 (fixed)
  3118                           ;	Chosen strategy is simple_byte
  3119  0382  0878               	movf	centenas@cont,w
  3120  0383  3A00               	xorlw	0	; case 0
  3121  0384  1903               	skipnz
  3122  0385  2B46               	goto	l1647
  3123  0386  3A01               	xorlw	1	; case 1
  3124  0387  1903               	skipnz
  3125  0388  2B4B               	goto	l1649
  3126  0389  3A03               	xorlw	3	; case 2
  3127  038A  1903               	skipnz
  3128  038B  2B50               	goto	l1651
  3129  038C  3A01               	xorlw	1	; case 3
  3130  038D  1903               	skipnz
  3131  038E  2B55               	goto	l1653
  3132  038F  3A07               	xorlw	7	; case 4
  3133  0390  1903               	skipnz
  3134  0391  2B5A               	goto	l1655
  3135  0392  3A01               	xorlw	1	; case 5
  3136  0393  1903               	skipnz
  3137  0394  2B5F               	goto	l1657
  3138  0395  3A03               	xorlw	3	; case 6
  3139  0396  1903               	skipnz
  3140  0397  2B64               	goto	l1659
  3141  0398  3A01               	xorlw	1	; case 7
  3142  0399  1903               	skipnz
  3143  039A  2B69               	goto	l1661
  3144  039B  3A0F               	xorlw	15	; case 8
  3145  039C  1903               	skipnz
  3146  039D  2B6E               	goto	l1663
  3147  039E  3A01               	xorlw	1	; case 9
  3148  039F  1903               	skipnz
  3149  03A0  2B73               	goto	l1665
  3150  03A1  2BA7               	goto	l1671
  3151  03A2                     l2127:
  3152                           
  3153                           ; Switch size 1, requested type "simple"
  3154                           ; Number of cases is 1, Range of values is 0 to 0
  3155                           ; switch strategies available:
  3156                           ; Name         Instructions Cycles
  3157                           ; simple_byte            4     3 (average)
  3158                           ; direct_byte           11     8 (fixed)
  3159                           ; jumptable            260     6 (fixed)
  3160                           ;	Chosen strategy is simple_byte
  3161  03A2  087A               	movf	centenas@cont+2,w
  3162  03A3  3A00               	xorlw	0	; case 0
  3163  03A4  1903               	skipnz
  3164  03A5  2B7D               	goto	l2125
  3165  03A6  2BA7               	goto	l1671
  3166  03A7                     l1671:
  3167                           
  3168                           ;libreria_master.c: 154:     return (centenas) ;
  3169  03A7  087C               	movf	centenas@centenas,w
  3170  03A8                     l194:
  3171  03A8  0008               	return
  3172  03A9                     __end_of_centenas:
  3173                           
  3174                           	psect	text10
  3175  0105                     __ptext10:	
  3176 ;; *************** function _I2C_Master_Write *****************
  3177 ;; Defined at:
  3178 ;;		line 65 in file "I2C.c"
  3179 ;; Parameters:    Size  Location     Type
  3180 ;;  d               2    0[COMMON] unsigned int 
  3181 ;; Auto vars:     Size  Location     Type
  3182 ;;		None
  3183 ;; Return value:  Size  Location     Type
  3184 ;;                  1    wreg      void 
  3185 ;; Registers used:
  3186 ;;		wreg, status,2, status,0, pclath, cstack
  3187 ;; Tracked objects:
  3188 ;;		On entry : 0/0
  3189 ;;		On exit  : 0/0
  3190 ;;		Unchanged: 0/0
  3191 ;; Data sizes:     COMMON   BANK0   BANK1   BANK3   BANK2
  3192 ;;      Params:         2       0       0       0       0
  3193 ;;      Locals:         0       0       0       0       0
  3194 ;;      Temps:          0       0       0       0       0
  3195 ;;      Totals:         2       0       0       0       0
  3196 ;;Total ram usage:        2 bytes
  3197 ;; Hardware stack levels used:    1
  3198 ;; Hardware stack levels required when called:    1
  3199 ;; This function calls:
  3200 ;;		_I2C_Master_Wait
  3201 ;; This function is called by:
  3202 ;;		_main
  3203 ;; This function uses a non-reentrant model
  3204 ;;
  3205                           
  3206                           
  3207                           ;psect for function _I2C_Master_Write
  3208  0105                     _I2C_Master_Write:
  3209  0105                     l1549:	
  3210                           ;incstack = 0
  3211                           ; Regs used in _I2C_Master_Write: [wreg+status,2+status,0+pclath+cstack]
  3212                           
  3213                           
  3214                           ;I2C.c: 65: void I2C_Master_Write(unsigned d);I2C.c: 66: {;I2C.c: 67:     I2C_Master_Wai
      +                          t();
  3215  0105  120A  118A  210F  120A  118A  	fcall	_I2C_Master_Wait
  3216  010A                     l1551:
  3217                           
  3218                           ;I2C.c: 68:     SSPBUF = d;
  3219  010A  0870               	movf	I2C_Master_Write@d,w
  3220  010B  1283               	bcf	3,5	;RP0=0, select bank0
  3221  010C  1303               	bcf	3,6	;RP1=0, select bank0
  3222  010D  0093               	movwf	19	;volatile
  3223  010E                     l47:
  3224  010E  0008               	return
  3225  010F                     __end_of_I2C_Master_Write:
  3226                           
  3227                           	psect	text11
  3228  00FC                     __ptext11:	
  3229 ;; *************** function _I2C_Master_Stop *****************
  3230 ;; Defined at:
  3231 ;;		line 55 in file "I2C.c"
  3232 ;; Parameters:    Size  Location     Type
  3233 ;;		None
  3234 ;; Auto vars:     Size  Location     Type
  3235 ;;		None
  3236 ;; Return value:  Size  Location     Type
  3237 ;;                  1    wreg      void 
  3238 ;; Registers used:
  3239 ;;		wreg, status,2, status,0, pclath, cstack
  3240 ;; Tracked objects:
  3241 ;;		On entry : 0/0
  3242 ;;		On exit  : 0/0
  3243 ;;		Unchanged: 0/0
  3244 ;; Data sizes:     COMMON   BANK0   BANK1   BANK3   BANK2
  3245 ;;      Params:         0       0       0       0       0
  3246 ;;      Locals:         0       0       0       0       0
  3247 ;;      Temps:          0       0       0       0       0
  3248 ;;      Totals:         0       0       0       0       0
  3249 ;;Total ram usage:        0 bytes
  3250 ;; Hardware stack levels used:    1
  3251 ;; Hardware stack levels required when called:    1
  3252 ;; This function calls:
  3253 ;;		_I2C_Master_Wait
  3254 ;; This function is called by:
  3255 ;;		_main
  3256 ;; This function uses a non-reentrant model
  3257 ;;
  3258                           
  3259                           
  3260                           ;psect for function _I2C_Master_Stop
  3261  00FC                     _I2C_Master_Stop:
  3262  00FC                     l1545:	
  3263                           ;incstack = 0
  3264                           ; Regs used in _I2C_Master_Stop: [wreg+status,2+status,0+pclath+cstack]
  3265                           
  3266                           
  3267                           ;I2C.c: 57:     I2C_Master_Wait();
  3268  00FC  120A  118A  210F  120A  118A  	fcall	_I2C_Master_Wait
  3269  0101                     l1547:
  3270                           
  3271                           ;I2C.c: 58:     SSPCON2bits.PEN = 1;
  3272  0101  1683               	bsf	3,5	;RP0=1, select bank1
  3273  0102  1303               	bcf	3,6	;RP1=0, select bank1
  3274  0103  1511               	bsf	17,2	;volatile
  3275  0104                     l44:
  3276  0104  0008               	return
  3277  0105                     __end_of_I2C_Master_Stop:
  3278                           
  3279                           	psect	text12
  3280  00F3                     __ptext12:	
  3281 ;; *************** function _I2C_Master_Start *****************
  3282 ;; Defined at:
  3283 ;;		line 39 in file "I2C.c"
  3284 ;; Parameters:    Size  Location     Type
  3285 ;;		None
  3286 ;; Auto vars:     Size  Location     Type
  3287 ;;		None
  3288 ;; Return value:  Size  Location     Type
  3289 ;;                  1    wreg      void 
  3290 ;; Registers used:
  3291 ;;		wreg, status,2, status,0, pclath, cstack
  3292 ;; Tracked objects:
  3293 ;;		On entry : 0/0
  3294 ;;		On exit  : 0/0
  3295 ;;		Unchanged: 0/0
  3296 ;; Data sizes:     COMMON   BANK0   BANK1   BANK3   BANK2
  3297 ;;      Params:         0       0       0       0       0
  3298 ;;      Locals:         0       0       0       0       0
  3299 ;;      Temps:          0       0       0       0       0
  3300 ;;      Totals:         0       0       0       0       0
  3301 ;;Total ram usage:        0 bytes
  3302 ;; Hardware stack levels used:    1
  3303 ;; Hardware stack levels required when called:    1
  3304 ;; This function calls:
  3305 ;;		_I2C_Master_Wait
  3306 ;; This function is called by:
  3307 ;;		_main
  3308 ;; This function uses a non-reentrant model
  3309 ;;
  3310                           
  3311                           
  3312                           ;psect for function _I2C_Master_Start
  3313  00F3                     _I2C_Master_Start:
  3314  00F3                     l1541:	
  3315                           ;incstack = 0
  3316                           ; Regs used in _I2C_Master_Start: [wreg+status,2+status,0+pclath+cstack]
  3317                           
  3318                           
  3319                           ;I2C.c: 41:     I2C_Master_Wait();
  3320  00F3  120A  118A  210F  120A  118A  	fcall	_I2C_Master_Wait
  3321  00F8                     l1543:
  3322                           
  3323                           ;I2C.c: 42:     SSPCON2bits.SEN = 1;
  3324  00F8  1683               	bsf	3,5	;RP0=1, select bank1
  3325  00F9  1303               	bcf	3,6	;RP1=0, select bank1
  3326  00FA  1411               	bsf	17,0	;volatile
  3327  00FB                     l38:
  3328  00FB  0008               	return
  3329  00FC                     __end_of_I2C_Master_Start:
  3330                           
  3331                           	psect	text13
  3332  0192                     __ptext13:	
  3333 ;; *************** function _I2C_Master_Read *****************
  3334 ;; Defined at:
  3335 ;;		line 74 in file "I2C.c"
  3336 ;; Parameters:    Size  Location     Type
  3337 ;;  a               2    0[COMMON] unsigned short 
  3338 ;; Auto vars:     Size  Location     Type
  3339 ;;  temp            2    4[COMMON] unsigned short 
  3340 ;; Return value:  Size  Location     Type
  3341 ;;                  2    0[COMMON] unsigned short 
  3342 ;; Registers used:
  3343 ;;		wreg, status,2, status,0, pclath, cstack
  3344 ;; Tracked objects:
  3345 ;;		On entry : 0/0
  3346 ;;		On exit  : 0/0
  3347 ;;		Unchanged: 0/0
  3348 ;; Data sizes:     COMMON   BANK0   BANK1   BANK3   BANK2
  3349 ;;      Params:         2       0       0       0       0
  3350 ;;      Locals:         2       0       0       0       0
  3351 ;;      Temps:          2       0       0       0       0
  3352 ;;      Totals:         6       0       0       0       0
  3353 ;;Total ram usage:        6 bytes
  3354 ;; Hardware stack levels used:    1
  3355 ;; Hardware stack levels required when called:    1
  3356 ;; This function calls:
  3357 ;;		_I2C_Master_Wait
  3358 ;; This function is called by:
  3359 ;;		_main
  3360 ;; This function uses a non-reentrant model
  3361 ;;
  3362                           
  3363                           
  3364                           ;psect for function _I2C_Master_Read
  3365  0192                     _I2C_Master_Read:
  3366  0192                     l1553:	
  3367                           ;incstack = 0
  3368                           ; Regs used in _I2C_Master_Read: [wreg+status,2+status,0+pclath+cstack]
  3369                           
  3370                           
  3371                           ;I2C.c: 74: unsigned short I2C_Master_Read(unsigned short a);I2C.c: 75: {;I2C.c: 76:    
      +                           unsigned short temp;;I2C.c: 77:     I2C_Master_Wait();
  3372  0192  120A  118A  210F  120A  118A  	fcall	_I2C_Master_Wait
  3373  0197                     l1555:
  3374                           
  3375                           ;I2C.c: 78:     SSPCON2bits.RCEN = 1;
  3376  0197  1683               	bsf	3,5	;RP0=1, select bank1
  3377  0198  1303               	bcf	3,6	;RP1=0, select bank1
  3378  0199  1591               	bsf	17,3	;volatile
  3379                           
  3380                           ;I2C.c: 79:     I2C_Master_Wait();
  3381  019A  120A  118A  210F  120A  118A  	fcall	_I2C_Master_Wait
  3382  019F                     l1557:
  3383                           
  3384                           ;I2C.c: 80:     temp = SSPBUF;
  3385  019F  1283               	bcf	3,5	;RP0=0, select bank0
  3386  01A0  1303               	bcf	3,6	;RP1=0, select bank0
  3387  01A1  0813               	movf	19,w	;volatile
  3388  01A2  00F2               	movwf	??_I2C_Master_Read
  3389  01A3  01F3               	clrf	??_I2C_Master_Read+1
  3390  01A4  0872               	movf	??_I2C_Master_Read,w
  3391  01A5  00F4               	movwf	I2C_Master_Read@temp
  3392  01A6  0873               	movf	??_I2C_Master_Read+1,w
  3393  01A7  00F5               	movwf	I2C_Master_Read@temp+1
  3394  01A8                     l1559:
  3395                           
  3396                           ;I2C.c: 81:     I2C_Master_Wait();
  3397  01A8  120A  118A  210F  120A  118A  	fcall	_I2C_Master_Wait
  3398  01AD                     l1561:
  3399                           
  3400                           ;I2C.c: 82:     if(a == 1){
  3401  01AD  0370               	decf	I2C_Master_Read@a,w
  3402  01AE  0471               	iorwf	I2C_Master_Read@a+1,w
  3403  01AF  1D03               	btfss	3,2
  3404  01B0  29B2               	goto	u361
  3405  01B1  29B3               	goto	u360
  3406  01B2                     u361:
  3407  01B2  29B7               	goto	l50
  3408  01B3                     u360:
  3409  01B3                     l1563:
  3410                           
  3411                           ;I2C.c: 83:         SSPCON2bits.ACKDT = 0;
  3412  01B3  1683               	bsf	3,5	;RP0=1, select bank1
  3413  01B4  1303               	bcf	3,6	;RP1=0, select bank1
  3414  01B5  1291               	bcf	17,5	;volatile
  3415                           
  3416                           ;I2C.c: 84:     }else{
  3417  01B6  29BA               	goto	l51
  3418  01B7                     l50:
  3419                           
  3420                           ;I2C.c: 85:         SSPCON2bits.ACKDT = 1;
  3421  01B7  1683               	bsf	3,5	;RP0=1, select bank1
  3422  01B8  1303               	bcf	3,6	;RP1=0, select bank1
  3423  01B9  1691               	bsf	17,5	;volatile
  3424  01BA                     l51:	
  3425                           ;I2C.c: 86:     }
  3426                           
  3427                           
  3428                           ;I2C.c: 87:     SSPCON2bits.ACKEN = 1;
  3429  01BA  1611               	bsf	17,4	;volatile
  3430  01BB                     l1565:
  3431                           
  3432                           ;I2C.c: 88:     return temp;
  3433  01BB  0875               	movf	I2C_Master_Read@temp+1,w
  3434  01BC  00F1               	movwf	?_I2C_Master_Read+1
  3435  01BD  0874               	movf	I2C_Master_Read@temp,w
  3436  01BE  00F0               	movwf	?_I2C_Master_Read
  3437  01BF                     l52:
  3438  01BF  0008               	return
  3439  01C0                     __end_of_I2C_Master_Read:
  3440                           
  3441                           	psect	text14
  3442  010F                     __ptext14:	
  3443 ;; *************** function _I2C_Master_Wait *****************
  3444 ;; Defined at:
  3445 ;;		line 32 in file "I2C.c"
  3446 ;; Parameters:    Size  Location     Type
  3447 ;;		None
  3448 ;; Auto vars:     Size  Location     Type
  3449 ;;		None
  3450 ;; Return value:  Size  Location     Type
  3451 ;;                  1    wreg      void 
  3452 ;; Registers used:
  3453 ;;		wreg, status,2
  3454 ;; Tracked objects:
  3455 ;;		On entry : 0/0
  3456 ;;		On exit  : 0/0
  3457 ;;		Unchanged: 0/0
  3458 ;; Data sizes:     COMMON   BANK0   BANK1   BANK3   BANK2
  3459 ;;      Params:         0       0       0       0       0
  3460 ;;      Locals:         0       0       0       0       0
  3461 ;;      Temps:          0       0       0       0       0
  3462 ;;      Totals:         0       0       0       0       0
  3463 ;;Total ram usage:        0 bytes
  3464 ;; Hardware stack levels used:    1
  3465 ;; This function calls:
  3466 ;;		Nothing
  3467 ;; This function is called by:
  3468 ;;		_I2C_Master_Start
  3469 ;;		_I2C_Master_Stop
  3470 ;;		_I2C_Master_Write
  3471 ;;		_I2C_Master_Read
  3472 ;;		_I2C_Master_RepeatedStart
  3473 ;; This function uses a non-reentrant model
  3474 ;;
  3475                           
  3476                           
  3477                           ;psect for function _I2C_Master_Wait
  3478  010F                     _I2C_Master_Wait:
  3479  010F                     l1477:	
  3480                           ;incstack = 0
  3481                           ; Regs used in _I2C_Master_Wait: [wreg+status,2]
  3482                           
  3483  010F                     l32:	
  3484                           ;I2C.c: 34:     while ((SSPSTAT & 0x04) || (SSPCON2 & 0x1F));
  3485                           
  3486  010F  1683               	bsf	3,5	;RP0=1, select bank1
  3487  0110  1303               	bcf	3,6	;RP1=0, select bank1
  3488  0111  1914               	btfsc	20,2	;volatile
  3489  0112  2914               	goto	u261
  3490  0113  2915               	goto	u260
  3491  0114                     u261:
  3492  0114  290F               	goto	l32
  3493  0115                     u260:
  3494  0115                     l1479:
  3495  0115  0811               	movf	17,w	;volatile
  3496  0116  391F               	andlw	31
  3497  0117  1D03               	btfss	3,2
  3498  0118  291A               	goto	u271
  3499  0119  291B               	goto	u270
  3500  011A                     u271:
  3501  011A  290F               	goto	l32
  3502  011B                     u270:
  3503  011B                     l35:
  3504  011B  0008               	return
  3505  011C                     __end_of_I2C_Master_Wait:
  3506                           
  3507                           	psect	text15
  3508  01C0                     __ptext15:	
  3509 ;; *************** function _I2C_Master_Init *****************
  3510 ;; Defined at:
  3511 ;;		line 16 in file "I2C.c"
  3512 ;; Parameters:    Size  Location     Type
  3513 ;;  c               4    0[BANK0 ] const unsigned long 
  3514 ;; Auto vars:     Size  Location     Type
  3515 ;;		None
  3516 ;; Return value:  Size  Location     Type
  3517 ;;                  1    wreg      void 
  3518 ;; Registers used:
  3519 ;;		wreg, status,2, status,0, pclath, cstack
  3520 ;; Tracked objects:
  3521 ;;		On entry : 0/0
  3522 ;;		On exit  : 0/0
  3523 ;;		Unchanged: 0/0
  3524 ;; Data sizes:     COMMON   BANK0   BANK1   BANK3   BANK2
  3525 ;;      Params:         0       4       0       0       0
  3526 ;;      Locals:         0       0       0       0       0
  3527 ;;      Temps:          0       4       0       0       0
  3528 ;;      Totals:         0       8       0       0       0
  3529 ;;Total ram usage:        8 bytes
  3530 ;; Hardware stack levels used:    1
  3531 ;; Hardware stack levels required when called:    1
  3532 ;; This function calls:
  3533 ;;		___lldiv
  3534 ;; This function is called by:
  3535 ;;		_main
  3536 ;; This function uses a non-reentrant model
  3537 ;;
  3538                           
  3539                           
  3540                           ;psect for function _I2C_Master_Init
  3541  01C0                     _I2C_Master_Init:
  3542  01C0                     l1529:	
  3543                           ;incstack = 0
  3544                           ; Regs used in _I2C_Master_Init: [wreg+status,2+status,0+pclath+cstack]
  3545                           
  3546                           
  3547                           ;I2C.c: 16: void I2C_Master_Init(const unsigned long c);I2C.c: 17: {;I2C.c: 18:     SSPC
      +                          ON = 0b00101000;
  3548  01C0  3028               	movlw	40
  3549  01C1  1283               	bcf	3,5	;RP0=0, select bank0
  3550  01C2  1303               	bcf	3,6	;RP1=0, select bank0
  3551  01C3  0094               	movwf	20	;volatile
  3552  01C4                     l1531:
  3553                           
  3554                           ;I2C.c: 19:     SSPCON2 = 0;
  3555  01C4  1683               	bsf	3,5	;RP0=1, select bank1
  3556  01C5  1303               	bcf	3,6	;RP1=0, select bank1
  3557  01C6  0191               	clrf	17	;volatile
  3558  01C7                     l1533:
  3559                           
  3560                           ;I2C.c: 20:     SSPADD = (8000000/(4*c))-1;
  3561  01C7  1283               	bcf	3,5	;RP0=0, select bank0
  3562  01C8  1303               	bcf	3,6	;RP1=0, select bank0
  3563  01C9  082F               	movf	I2C_Master_Init@c,w
  3564  01CA  00B3               	movwf	??_I2C_Master_Init
  3565  01CB  0830               	movf	I2C_Master_Init@c+1,w
  3566  01CC  00B4               	movwf	??_I2C_Master_Init+1
  3567  01CD  0831               	movf	I2C_Master_Init@c+2,w
  3568  01CE  00B5               	movwf	??_I2C_Master_Init+2
  3569  01CF  0832               	movf	I2C_Master_Init@c+3,w
  3570  01D0  00B6               	movwf	??_I2C_Master_Init+3
  3571  01D1  3002               	movlw	2
  3572  01D2                     u355:
  3573  01D2  1003               	clrc
  3574  01D3  0DB3               	rlf	??_I2C_Master_Init,f
  3575  01D4  0DB4               	rlf	??_I2C_Master_Init+1,f
  3576  01D5  0DB5               	rlf	??_I2C_Master_Init+2,f
  3577  01D6  0DB6               	rlf	??_I2C_Master_Init+3,f
  3578  01D7                     u350:
  3579  01D7  3EFF               	addlw	-1
  3580  01D8  1D03               	skipz
  3581  01D9  29D2               	goto	u355
  3582  01DA  0836               	movf	??_I2C_Master_Init+3,w
  3583  01DB  00F3               	movwf	___lldiv@divisor+3
  3584  01DC  0835               	movf	??_I2C_Master_Init+2,w
  3585  01DD  00F2               	movwf	___lldiv@divisor+2
  3586  01DE  0834               	movf	??_I2C_Master_Init+1,w
  3587  01DF  00F1               	movwf	___lldiv@divisor+1
  3588  01E0  0833               	movf	??_I2C_Master_Init,w
  3589  01E1  00F0               	movwf	___lldiv@divisor
  3590  01E2  3000               	movlw	0
  3591  01E3  00F7               	movwf	___lldiv@dividend+3
  3592  01E4  307A               	movlw	122
  3593  01E5  00F6               	movwf	___lldiv@dividend+2
  3594  01E6  3012               	movlw	18
  3595  01E7  00F5               	movwf	___lldiv@dividend+1
  3596  01E8  3000               	movlw	0
  3597  01E9  00F4               	movwf	___lldiv@dividend
  3598  01EA  120A  118A  2294  120A  118A  	fcall	___lldiv
  3599  01EF  0870               	movf	?___lldiv,w
  3600  01F0  3EFF               	addlw	255
  3601  01F1  1683               	bsf	3,5	;RP0=1, select bank1
  3602  01F2  1303               	bcf	3,6	;RP1=0, select bank1
  3603  01F3  0093               	movwf	19	;volatile
  3604  01F4                     l1535:
  3605                           
  3606                           ;I2C.c: 21:     SSPSTAT = 0;
  3607  01F4  0194               	clrf	20	;volatile
  3608  01F5                     l1537:
  3609                           
  3610                           ;I2C.c: 22:     TRISCbits.TRISC3 = 1;
  3611  01F5  1587               	bsf	7,3	;volatile
  3612  01F6                     l1539:
  3613                           
  3614                           ;I2C.c: 23:     TRISCbits.TRISC4 = 1;
  3615  01F6  1607               	bsf	7,4	;volatile
  3616  01F7                     l29:
  3617  01F7  0008               	return
  3618  01F8                     __end_of_I2C_Master_Init:
  3619                           
  3620                           	psect	text16
  3621  0294                     __ptext16:	
  3622 ;; *************** function ___lldiv *****************
  3623 ;; Defined at:
  3624 ;;		line 5 in file "C:\Program Files\Microchip\xc8\v2.31\pic\sources\c90\common\__lldiv.c"
  3625 ;; Parameters:    Size  Location     Type
  3626 ;;  divisor         4    0[COMMON] unsigned long 
  3627 ;;  dividend        4    4[COMMON] unsigned long 
  3628 ;; Auto vars:     Size  Location     Type
  3629 ;;  quotient        4    9[COMMON] unsigned long 
  3630 ;;  counter         1   13[COMMON] unsigned char 
  3631 ;; Return value:  Size  Location     Type
  3632 ;;                  4    0[COMMON] unsigned long 
  3633 ;; Registers used:
  3634 ;;		wreg, status,2, status,0
  3635 ;; Tracked objects:
  3636 ;;		On entry : 0/0
  3637 ;;		On exit  : 0/0
  3638 ;;		Unchanged: 0/0
  3639 ;; Data sizes:     COMMON   BANK0   BANK1   BANK3   BANK2
  3640 ;;      Params:         8       0       0       0       0
  3641 ;;      Locals:         5       0       0       0       0
  3642 ;;      Temps:          1       0       0       0       0
  3643 ;;      Totals:        14       0       0       0       0
  3644 ;;Total ram usage:       14 bytes
  3645 ;; Hardware stack levels used:    1
  3646 ;; This function calls:
  3647 ;;		Nothing
  3648 ;; This function is called by:
  3649 ;;		_I2C_Master_Init
  3650 ;; This function uses a non-reentrant model
  3651 ;;
  3652                           
  3653                           
  3654                           ;psect for function ___lldiv
  3655  0294                     ___lldiv:
  3656  0294                     l1505:	
  3657                           ;incstack = 0
  3658                           ; Regs used in ___lldiv: [wreg+status,2+status,0]
  3659                           
  3660  0294  3000               	movlw	0
  3661  0295  00FC               	movwf	___lldiv@quotient+3
  3662  0296  3000               	movlw	0
  3663  0297  00FB               	movwf	___lldiv@quotient+2
  3664  0298  3000               	movlw	0
  3665  0299  00FA               	movwf	___lldiv@quotient+1
  3666  029A  3000               	movlw	0
  3667  029B  00F9               	movwf	___lldiv@quotient
  3668  029C  0873               	movf	___lldiv@divisor+3,w
  3669  029D  0472               	iorwf	___lldiv@divisor+2,w
  3670  029E  0471               	iorwf	___lldiv@divisor+1,w
  3671  029F  0470               	iorwf	___lldiv@divisor,w
  3672  02A0  1903               	skipnz
  3673  02A1  2AA3               	goto	u281
  3674  02A2  2AA4               	goto	u280
  3675  02A3                     u281:
  3676  02A3  2AF1               	goto	l1525
  3677  02A4                     u280:
  3678  02A4                     l1507:
  3679  02A4  01FD               	clrf	___lldiv@counter
  3680  02A5  0AFD               	incf	___lldiv@counter,f
  3681  02A6  2AB4               	goto	l1511
  3682  02A7                     l1509:
  3683  02A7  3001               	movlw	1
  3684  02A8  00F8               	movwf	??___lldiv
  3685  02A9                     u295:
  3686  02A9  1003               	clrc
  3687  02AA  0DF0               	rlf	___lldiv@divisor,f
  3688  02AB  0DF1               	rlf	___lldiv@divisor+1,f
  3689  02AC  0DF2               	rlf	___lldiv@divisor+2,f
  3690  02AD  0DF3               	rlf	___lldiv@divisor+3,f
  3691  02AE  0BF8               	decfsz	??___lldiv,f
  3692  02AF  2AA9               	goto	u295
  3693  02B0  3001               	movlw	1
  3694  02B1  00F8               	movwf	??___lldiv
  3695  02B2  0878               	movf	??___lldiv,w
  3696  02B3  07FD               	addwf	___lldiv@counter,f
  3697  02B4                     l1511:
  3698  02B4  1FF3               	btfss	___lldiv@divisor+3,7
  3699  02B5  2AB7               	goto	u301
  3700  02B6  2AB8               	goto	u300
  3701  02B7                     u301:
  3702  02B7  2AA7               	goto	l1509
  3703  02B8                     u300:
  3704  02B8                     l1513:
  3705  02B8  3001               	movlw	1
  3706  02B9  00F8               	movwf	??___lldiv
  3707  02BA                     u315:
  3708  02BA  1003               	clrc
  3709  02BB  0DF9               	rlf	___lldiv@quotient,f
  3710  02BC  0DFA               	rlf	___lldiv@quotient+1,f
  3711  02BD  0DFB               	rlf	___lldiv@quotient+2,f
  3712  02BE  0DFC               	rlf	___lldiv@quotient+3,f
  3713  02BF  0BF8               	decfsz	??___lldiv,f
  3714  02C0  2ABA               	goto	u315
  3715  02C1                     l1515:
  3716  02C1  0873               	movf	___lldiv@divisor+3,w
  3717  02C2  0277               	subwf	___lldiv@dividend+3,w
  3718  02C3  1D03               	skipz
  3719  02C4  2ACF               	goto	u325
  3720  02C5  0872               	movf	___lldiv@divisor+2,w
  3721  02C6  0276               	subwf	___lldiv@dividend+2,w
  3722  02C7  1D03               	skipz
  3723  02C8  2ACF               	goto	u325
  3724  02C9  0871               	movf	___lldiv@divisor+1,w
  3725  02CA  0275               	subwf	___lldiv@dividend+1,w
  3726  02CB  1D03               	skipz
  3727  02CC  2ACF               	goto	u325
  3728  02CD  0870               	movf	___lldiv@divisor,w
  3729  02CE  0274               	subwf	___lldiv@dividend,w
  3730  02CF                     u325:
  3731  02CF  1C03               	skipc
  3732  02D0  2AD2               	goto	u321
  3733  02D1  2AD3               	goto	u320
  3734  02D2                     u321:
  3735  02D2  2AE2               	goto	l1521
  3736  02D3                     u320:
  3737  02D3                     l1517:
  3738  02D3  0870               	movf	___lldiv@divisor,w
  3739  02D4  02F4               	subwf	___lldiv@dividend,f
  3740  02D5  0871               	movf	___lldiv@divisor+1,w
  3741  02D6  1C03               	skipc
  3742  02D7  0F71               	incfsz	___lldiv@divisor+1,w
  3743  02D8  02F5               	subwf	___lldiv@dividend+1,f
  3744  02D9  0872               	movf	___lldiv@divisor+2,w
  3745  02DA  1C03               	skipc
  3746  02DB  0F72               	incfsz	___lldiv@divisor+2,w
  3747  02DC  02F6               	subwf	___lldiv@dividend+2,f
  3748  02DD  0873               	movf	___lldiv@divisor+3,w
  3749  02DE  1C03               	skipc
  3750  02DF  0F73               	incfsz	___lldiv@divisor+3,w
  3751  02E0  02F7               	subwf	___lldiv@dividend+3,f
  3752  02E1                     l1519:
  3753  02E1  1479               	bsf	___lldiv@quotient,0
  3754  02E2                     l1521:
  3755  02E2  3001               	movlw	1
  3756  02E3                     u335:
  3757  02E3  1003               	clrc
  3758  02E4  0CF3               	rrf	___lldiv@divisor+3,f
  3759  02E5  0CF2               	rrf	___lldiv@divisor+2,f
  3760  02E6  0CF1               	rrf	___lldiv@divisor+1,f
  3761  02E7  0CF0               	rrf	___lldiv@divisor,f
  3762  02E8  3EFF               	addlw	-1
  3763  02E9  1D03               	skipz
  3764  02EA  2AE3               	goto	u335
  3765  02EB                     l1523:
  3766  02EB  3001               	movlw	1
  3767  02EC  02FD               	subwf	___lldiv@counter,f
  3768  02ED  1D03               	btfss	3,2
  3769  02EE  2AF0               	goto	u341
  3770  02EF  2AF1               	goto	u340
  3771  02F0                     u341:
  3772  02F0  2AB8               	goto	l1513
  3773  02F1                     u340:
  3774  02F1                     l1525:
  3775  02F1  087C               	movf	___lldiv@quotient+3,w
  3776  02F2  00F3               	movwf	?___lldiv+3
  3777  02F3  087B               	movf	___lldiv@quotient+2,w
  3778  02F4  00F2               	movwf	?___lldiv+2
  3779  02F5  087A               	movf	___lldiv@quotient+1,w
  3780  02F6  00F1               	movwf	?___lldiv+1
  3781  02F7  0879               	movf	___lldiv@quotient,w
  3782  02F8  00F0               	movwf	?___lldiv
  3783  02F9                     l359:
  3784  02F9  0008               	return
  3785  02FA                     __end_of___lldiv:
  3786  007E                     btemp	set	126	;btemp
  3787  007E                     wtemp0	set	126
  3788                           
  3789                           	psect	config
  3790                           
  3791                           ;Config register CONFIG1 @ 0x2007
  3792                           ;	Oscillator Selection bits
  3793                           ;	FOSC = INTRC_NOCLKOUT, INTOSCIO oscillator: I/O function on RA6/OSC2/CLKOUT pin, I/O f
      +                          unction on RA7/OSC1/CLKIN
  3794                           ;	Watchdog Timer Enable bit
  3795                           ;	WDTE = OFF, WDT disabled and can be enabled by SWDTEN bit of the WDTCON register
  3796                           ;	Power-up Timer Enable bit
  3797                           ;	PWRTE = OFF, PWRT disabled
  3798                           ;	RE3/MCLR pin function select bit
  3799                           ;	MCLRE = OFF, RE3/MCLR pin function is digital input, MCLR internally tied to VDD
  3800                           ;	Code Protection bit
  3801                           ;	CP = OFF, Program memory code protection is disabled
  3802                           ;	Data Code Protection bit
  3803                           ;	CPD = OFF, Data memory code protection is disabled
  3804                           ;	Brown Out Reset Selection bits
  3805                           ;	BOREN = OFF, BOR disabled
  3806                           ;	Internal External Switchover bit
  3807                           ;	IESO = OFF, Internal/External Switchover mode is disabled
  3808                           ;	Fail-Safe Clock Monitor Enabled bit
  3809                           ;	FCMEN = OFF, Fail-Safe Clock Monitor is disabled
  3810                           ;	Low Voltage Programming Enable bit
  3811                           ;	LVP = OFF, RB3 pin has digital I/O, HV on MCLR must be used for programming
  3812                           ;	In-Circuit Debugger Mode bit
  3813                           ;	DEBUG = 0x1, unprogrammed default
  3814  2007                     	org	8199
  3815  2007  20D4               	dw	8404
  3816                           
  3817                           ;Config register CONFIG2 @ 0x2008
  3818                           ;	Brown-out Reset Selection bit
  3819                           ;	BOR4V = BOR40V, Brown-out Reset set to 4.0V
  3820                           ;	Flash Program Memory Self Write Enable bits
  3821                           ;	WRT = OFF, Write protection off
  3822  2008                     	org	8200
  3823  2008  3FFF               	dw	16383

Data Sizes:
    Strings     17
    Constant    0
    Data        0
    BSS         15
    Persistent  0
    Stack       0

Auto Spaces:
    Space          Size  Autos    Used
    COMMON           14     14      14
    BANK0            80     13      28
    BANK1            80      0       0
    BANK3            96      0       0
    BANK2            96      0       0

Pointer List with Targets:

    sed_LCD@dato	PTR unsigned char  size(2) Largest target is 17
		 -> tempe(BANK0[3]), conta(BANK0[1]), volt(BANK0[3]), STR_1(CODE[17]), 


Critical Paths under _main in COMMON

    _sed_LCD->_caracteres_LCD
    _init_LCD->_comando_LCD
    _centrado_LCD->_comando_LCD
    _I2C_Master_Init->___lldiv

Critical Paths under _main in BANK0

    _main->_I2C_Master_Init

Critical Paths under _main in BANK1

    None.

Critical Paths under _main in BANK3

    None.

Critical Paths under _main in BANK2

    None.

Call Graph Tables:

 ---------------------------------------------------------------------------------
 (Depth) Function   	        Calls       Base Space   Used Autos Params    Refs
 ---------------------------------------------------------------------------------
 (0) _main                                                 5     5      0    3094
                                              8 BANK0      5     5      0
                    _I2C_Master_Init
                    _I2C_Master_Read
                   _I2C_Master_Start
                    _I2C_Master_Stop
                   _I2C_Master_Write
                           _centenas
                       _centrado_LCD
                        _conf_OSCCON
                            _decenas
                           _init_LCD
                            _sed_LCD
                           _unidades
 ---------------------------------------------------------------------------------
 (1) _unidades                                            13     9      4     495
                                              0 COMMON    13     9      4
 ---------------------------------------------------------------------------------
 (1) _sed_LCD                                              3     1      2     371
                                              2 COMMON     3     1      2
                     _caracteres_LCD
 ---------------------------------------------------------------------------------
 (2) _caracteres_LCD                                       2     2      0      22
                                              0 COMMON     2     2      0
 ---------------------------------------------------------------------------------
 (1) _init_LCD                                             2     2      0      22
                                              2 COMMON     2     2      0
                        _comando_LCD
 ---------------------------------------------------------------------------------
 (1) _decenas                                             13     9      4     451
                                              0 COMMON    13     9      4
 ---------------------------------------------------------------------------------
 (1) _conf_OSCCON                                          3     3      0      22
                                              0 COMMON     3     3      0
 ---------------------------------------------------------------------------------
 (1) _centrado_LCD                                         2     1      1     392
                                              2 COMMON     2     1      1
                        _comando_LCD
 ---------------------------------------------------------------------------------
 (2) _comando_LCD                                          2     2      0      22
                                              0 COMMON     2     2      0
 ---------------------------------------------------------------------------------
 (1) _centenas                                            13     9      4     254
                                              0 COMMON    13     9      4
 ---------------------------------------------------------------------------------
 (1) _I2C_Master_Write                                     2     0      2     402
                                              0 COMMON     2     0      2
                    _I2C_Master_Wait
 ---------------------------------------------------------------------------------
 (1) _I2C_Master_Stop                                      0     0      0       0
                    _I2C_Master_Wait
 ---------------------------------------------------------------------------------
 (1) _I2C_Master_Start                                     0     0      0       0
                    _I2C_Master_Wait
 ---------------------------------------------------------------------------------
 (1) _I2C_Master_Read                                      6     4      2     273
                                              0 COMMON     6     4      2
                    _I2C_Master_Wait
 ---------------------------------------------------------------------------------
 (2) _I2C_Master_Wait                                      0     0      0       0
 ---------------------------------------------------------------------------------
 (1) _I2C_Master_Init                                      8     4      4     412
                                              0 BANK0      8     4      4
                            ___lldiv
 ---------------------------------------------------------------------------------
 (2) ___lldiv                                             14     6      8     314
                                              0 COMMON    14     6      8
 ---------------------------------------------------------------------------------
 Estimated maximum stack depth 2
 ---------------------------------------------------------------------------------

 Call Graph Graphs:

 _main (ROOT)
   _I2C_Master_Init
     ___lldiv
   _I2C_Master_Read
     _I2C_Master_Wait
   _I2C_Master_Start
     _I2C_Master_Wait
   _I2C_Master_Stop
     _I2C_Master_Wait
   _I2C_Master_Write
     _I2C_Master_Wait
   _centenas
   _centrado_LCD
     _comando_LCD
   _conf_OSCCON
   _decenas
   _init_LCD
     _comando_LCD
   _sed_LCD
     _caracteres_LCD
   _unidades

 Address spaces:
Name               Size   Autos  Total    Cost      Usage
BITCOMMON            E      0       0       0        0.0%
EEDATA             100      0       0       0        0.0%
NULL                 0      0       0       0        0.0%
CODE                 0      0       0       0        0.0%
COMMON               E      E       E       1      100.0%
BITSFR0              0      0       0       1        0.0%
SFR0                 0      0       0       1        0.0%
BITSFR1              0      0       0       2        0.0%
SFR1                 0      0       0       2        0.0%
STACK                0      0       0       2        0.0%
ABS                  0      0      2A       3        0.0%
BITBANK0            50      0       0       4        0.0%
BITSFR3              0      0       0       4        0.0%
SFR3                 0      0       0       4        0.0%
BANK0               50      D      1C       5       35.0%
BITSFR2              0      0       0       5        0.0%
SFR2                 0      0       0       5        0.0%
BITBANK1            50      0       0       6        0.0%
BANK1               50      0       0       7        0.0%
BITBANK3            60      0       0       8        0.0%
BANK3               60      0       0       9        0.0%
BITBANK2            60      0       0      10        0.0%
BANK2               60      0       0      11        0.0%
DATA                 0      0      2A      12        0.0%


Microchip Technology PIC Macro Assembler V2.31 build 20201012212115 
Symbol Table                                                                                   Tue Aug 10 11:45:14 2021

                        pc 0002                         l32 010F                         l50 01B7  
                       l35 011B                         l51 01BA                         l52 01BF  
                       l44 0104                         l29 01F7                         l38 00FB  
                       l47 010E                         fsr 0004                        l215 048B  
                      l162 0131                        l156 0293                        l148 0290  
                      l173 0191                        l237 0579                        l167 0147  
                      l159 0237                        _ADC 002E                        l176 0164  
                      l194 03A8                        l359 02F9                        _GIE 005F  
                      _RE0 0048                        _RE1 0049                        _RE2 004A  
                      u300 02B8                        u301 02B7                        u320 02D3  
                      u400 0345                        u321 02D2                        u401 0344  
                      u410 03C2                        u315 02BA                        u403 0341  
                      u411 03C3                        u340 02F1                        u260 0115  
                      u420 03E6                        u412 03C8                        u500 0748  
                      u341 02F0                        u325 02CF                        u261 0114  
                      u421 03E5                        u413 03C9                        u501 0747  
                      u350 01D7                        u270 011B                        u430 03F6  
                      u335 02E3                        u271 011A                        u431 03F7  
                      u423 03E2                        u280 02A4                        u360 01B3  
                      u440 0428                        u432 03FC                        u281 02A3  
                      u361 01B2                        u441 0427                        u433 03FD  
                      u505 0744                        u370 0138                        u450 04A5  
                      u355 01D2                        u371 0137                        u443 0424  
                      u451 04A6                        u380 0191                        u460 04C9  
                      u452 04AB                        u381 0190                        u461 04C8  
                      u453 04AC                        u517 05CE                        u390 0313  
                      u470 04D9                        u295 02A9                        u391 0314  
                      u471 04DA                        u463 04C5                        u607 0736  
                      u527 05F8                        u392 0319                        u480 04FD  
                      u472 04DF                        u393 031A                        u481 04FC  
                      u473 04E0                        u617 07D4                        u537 0628  
                      u490 050E                        u707 0126                        u491 050D  
                      u483 04F9                        u627 07E4                        u547 0658  
                      u717 012E                        u637 0168                        u493 050A  
                      u557 066A                        u647 014B                        u567 067A  
                      u657 0156                        u577 06D5                        u667 015E  
                      u587 06E5                        u677 0201                        u597 0726  
                      u687 0210                        u697 021D                        fsr0 0004  
                      indf 0000     __end_of_caracteres_LCD 0165                       l2111 054E  
                     l2121 0465                       l2113 0573                       l2123 0276  
                     l2115 0553                       l2125 037D                       l2117 0460  
                     l1501 0161                       l1511 02B4                       l2127 03A2  
                     l2119 0485                       l1521 02E2                       l1513 02B8  
                     l1505 0294                       l2129 0382                       l1601 01FD  
                     l1523 02EB                       l1515 02C1                       l1507 02A4  
                     l1531 01C4                       l1611 021F                       l1603 0206  
                     l1517 02D3                       l1509 02A7                       l1525 02F1  
                     l1533 01C7                       l1541 00F3                       l1621 0133  
                     l1701 042E                       l1613 0225                       l1605 020C  
                     l1519 02E1                       l1535 01F4                       l1543 00F8  
                     l1551 010A                       l1623 0138                       l1711 0447  
                     l1703 0433                       l1615 022B                       l1607 0215  
                     l1631 0166                       l1537 01F5                       l1529 01C0  
                     l1561 01AD                       l1553 0192                       l1545 00FC  
                     l1641 02FB                       l1481 011D                       l1625 0140  
                     l1713 044C                       l1705 0438                       l1721 045B  
                     l1617 0231                       l1609 021B                       l1633 016B  
                     l1801 058B                       l1539 01F6                       l1563 01B3  
                     l1555 0197                       l1547 0101                       l1651 0350  
                     l1643 0304                       l1483 0121                       l1571 023A  
                     l1715 0451                       l1707 043D                       l1723 048A  
                     l1635 017B                       l1811 05B3                       l1803 0591  
                     l1477 010F                       l1565 01BB                       l1557 019F  
                     l1549 0105                       l1661 0369                       l1653 0355  
                     l1645 0334                       l1485 0122                       l1581 025B  
                     l1573 023F                       l1717 0456                       l1709 0442  
                     l1493 0149                       l1637 0181                       l1629 0165  
                     l1741 048D                       l1821 05E3                       l1813 05C1  
                     l1805 05A0                       l1479 0115                       l1559 01A8  
                     l1663 036E                       l1655 035A                       l1671 03A7  
                     l1647 0346                       l1639 02FA                       l1487 0123  
                     l1583 0262                       l1575 0246                       l1495 0152  
                     l1751 04FD                       l1743 0496                       l1903 07C6  
                     l1831 060D                       l1823 05EB                       l1815 05C6  
                     l1807 05A5                       l1665 0373                       l1657 035F  
                     l1649 034B                       l1489 0129                       l1585 0269  
                     l1577 024D                       l1569 0239                       l1497 0153  
                     l1761 0526                       l1753 050E                       l1745 04B8  
                     l1905 07D0                       l1841 063D                       l1833 061B  
                     l1825 05F0                       l1817 05D5                       l1809 05AA  
                     l1659 0364                       l1579 0254                       l1691 03B3  
                     l1595 01F8                       l1499 0159                       l1771 053F  
                     l1763 052B                       l1755 0517                       l1747 04CA  
                     l1739 048C                       l1907 07D7                       l1851 066D  
                     l1843 064B                       l1835 0620                       l1827 05FF  
                     l1819 05DA                       l1669 0378                       l1589 026E  
                     l1693 03D5                       l1597 01FB                       l1773 0544  
                     l1765 0530                       l1757 051C                       l1749 04EC  
                     l1909 07E0                       l1861 06A2                       l1853 0676  
                     l1845 0650                       l1837 062F                       l1829 0604  
                     l1695 03E7                       l1687 03A9                       l1599 01FC  
                     l1767 0535                       l1759 0521                       l1871 06D8  
                     l1863 06B4                       l1855 067D                       l1847 065F  
                     l1839 0634                       l1697 0417                       l1689 03AA  
                     l1769 053A                       l1777 0549                       l1881 0722  
                     l1873 06E1                       l1865 06C6                       l1857 068C  
                     l1849 0666                       l1699 0429                       l1779 0578  
                     l1891 075B                       l1883 0729                       l1875 06E8  
                     l1867 06CA                       l1859 069E                       l1893 075F  
                     l1885 0732                       l1877 0701                       l1869 06D1  
                     l1895 0772                       l1887 0739                       l1879 0718  
                     l1799 057A                       l1897 0785                       l1889 0748  
                     l1899 078A                       STR_1 0013                       _PEIE 005E  
                     _main 057A                       btemp 007E                       _volt 002A  
                     start 0000           ?_I2C_Master_Init 002F           ?_I2C_Master_Read 0070  
         ?_I2C_Master_Wait 0070           ?_I2C_Master_Stop 0070                      ?_main 0070  
                    _ANSEL 0188            __end_of___lldiv 02FA            comando_LCD@dato 0071  
                    _PORTA 0005                      _PORTB 0006                      _PORTC 0007  
                    _PORTD 0008                      _PORTE 0009                      _TRISA 0085  
                    _TRISB 0086                      _TRISD 0088                      _SSPIE 0463  
                    _TRISE 0089                      _SSPIF 0063            __end_of_decenas 048C  
          ?_caracteres_LCD 0070               unidades@cont 0078            __end_of_sed_LCD 0192  
                    _conta 002D                      _tempe 0027                      pclath 000A  
                    status 0003                      wtemp0 007E       __end_of_centrado_LCD 0148  
          __initialization 07EB               __end_of_main 07EB                     ??_main 0037  
        ?_I2C_Master_Start 0070                sed_LCD@dato 0072          ?_I2C_Master_Write 0070  
       ??_I2C_Master_Start 0070       __size_of_conf_OSCCON 005C         ??_I2C_Master_Write 0072  
                   _ANSELH 0189                     _SSPADD 0093                     _TRISC3 043B  
                   _TRISC4 043C                     _SSPCON 0014                     _SSPBUF 0013  
     __size_of_comando_LCD 0016           __end_of_centenas 03A9                  ??___lldiv 0078  
         __end_of_init_LCD 0238                     _conver 0020                  ??_decenas 0074  
                ??_sed_LCD 0074           __end_of_unidades 057A    __end_of__initialization 07FC  
           __pcstackCOMMON 0070                 __pbssBANK0 0020      __size_of_centrado_LCD 0016  
               __pmaintext 057A           centenas@cantidad 0070           centenas@centenas 007C  
         ??_caracteres_LCD 0070               _centrado_LCD 0132                  ?_centenas 0070  
                  _SSPCON2 0091                    _SSPSTAT 0094                 __stringtab 0003  
                ?_init_LCD 0070             decenas@decenas 007C                  ?_unidades 0070  
                  ___lldiv 0294                    _decenas 03A9                    __ptext1 048C  
                  __ptext2 0165                    __ptext3 0148                    __ptext4 01F8  
                  __ptext5 03A9                    __ptext6 0238                    __ptext7 0132  
                  __ptext8 011C                    __ptext9 02FA                    _sed_LCD 0165  
 __size_of_I2C_Master_Init 0038   __size_of_I2C_Master_Read 002E   __size_of_I2C_Master_Wait 000D  
               ??_centenas 0074   __size_of_I2C_Master_Stop 0009       end_of_initialization 07FC  
               ??_init_LCD 0072  __size_of_I2C_Master_Start 0009  __size_of_I2C_Master_Write 000A  
          ___lldiv@divisor 0070            ___lldiv@counter 007D           I2C_Master_Init@c 002F  
         I2C_Master_Read@a 0070                 ??_unidades 0074              ??_conf_OSCCON 0070  
                _TRISCbits 0087              ??_comando_LCD 0070        start_initialization 07EB  
      __end_of_conf_OSCCON 0294          ??_I2C_Master_Init 0033          ??_I2C_Master_Read 0072  
        ??_I2C_Master_Wait 0070          ??_I2C_Master_Stop 0070        __end_of_comando_LCD 0132  
                ___latbits 0002              __pcstackBANK0 002F          __size_of_centenas 00AF  
         unidades@cantidad 0070          __size_of_init_LCD 0040           _I2C_Master_Start 00F3  
         _I2C_Master_Write 0105                   ?___lldiv 0070                   ?_decenas 0070  
        __size_of_unidades 00EE                  __pstrings 0003                   ?_sed_LCD 0072  
              _conf_OSCCON 0238           unidades@unidades 007C                _comando_LCD 011C  
            centrado_LCD@x 0073              centrado_LCD@y 0072                __stringbase 0012  
      I2C_Master_Read@temp 0074    __size_of_caracteres_LCD 001D                decenas@cont 0078  
          decenas@cantidad 0070           __size_of___lldiv 0066         __end_of__stringtab 0013  
         __size_of_decenas 00E3            _I2C_Master_Init 01C0            _I2C_Master_Read 0192  
          _I2C_Master_Wait 010F            _I2C_Master_Stop 00FC           __size_of_sed_LCD 002D  
                 _centenas 02FA               centenas@cont 0078                   __ptext10 0105  
                 __ptext11 00FC                   __ptext12 00F3                   __ptext13 0192  
                 __ptext14 010F                   __ptext15 01C0                   __ptext16 0294  
                 _contador 0026         caracteres_LCD@data 0071                   _init_LCD 01F8  
            __size_of_main 0271                   _unidades 048C   __end_of_I2C_Master_Start 00FC  
 __end_of_I2C_Master_Write 010F              ?_centrado_LCD 0072           ___lldiv@dividend 0074  
                stringcode 000D                 _OSCCONbits 008F    __end_of_I2C_Master_Init 01F8  
  __end_of_I2C_Master_Read 01C0    __end_of_I2C_Master_Wait 011C    __end_of_I2C_Master_Stop 0105  
              _temperatura 0024             ??_centrado_LCD 0073           ___lldiv@quotient 0079  
        I2C_Master_Write@d 0070               ?_conf_OSCCON 0070                   stringdir 000D  
                 stringtab 0003                _SSPCON2bits 0091             _caracteres_LCD 0148  
             ?_comando_LCD 0070      conf_OSCCON@frecuencia 0072  
